
fft_demo/user.elf:     file format elf32-littlearm


Disassembly of section .text:

00300000 <__start>:
  300000:	e59f0024 	ldr	r0, [pc, #36]	; 30002c <bss_loop+0x14>
  300004:	e59f1024 	ldr	r1, [pc, #36]	; 300030 <bss_loop+0x18>
  300008:	e3a02000 	mov	r2, #0
  30000c:	e3a03000 	mov	r3, #0
  300010:	e3a04000 	mov	r4, #0
  300014:	e3a05000 	mov	r5, #0

00300018 <bss_loop>:
  300018:	e8a0003c 	stmia	r0!, {r2, r3, r4, r5}
  30001c:	e1500001 	cmp	r0, r1
  300020:	3afffffc 	bcc	300018 <bss_loop>
  300024:	eb000002 	bl	300034 <main>
  300028:	ef000007 	svc	0x00000007
  30002c:	00310000 	eorseq	r0, r1, r0
  300030:	00314000 	eorseq	r4, r1, r0

00300034 <main>:
  300034:	e92d47f0 	push	{r4, r5, r6, r7, r8, r9, sl, lr}
  300038:	e3a00d19 	mov	r0, #1600	; 0x640
  30003c:	e3a01000 	mov	r1, #0
  300040:	e1a02001 	mov	r2, r1
  300044:	e1a03001 	mov	r3, r1
  300048:	eb000531 	bl	301514 <kiss_fftr_alloc>
  30004c:	e1a08000 	mov	r8, r0
  300050:	e3a04000 	mov	r4, #0
  300054:	e3067667 	movw	r7, #26215	; 0x6667
  300058:	e3467666 	movt	r7, #26214	; 0x6666
  30005c:	e3005040 	movw	r5, #64	; 0x40
  300060:	e3405031 	movt	r5, #49	; 0x31
  300064:	e30e6380 	movw	r6, #58240	; 0xe380
  300068:	e3406030 	movt	r6, #48	; 0x30
  30006c:	e0c32794 	smull	r2, r3, r4, r7
  300070:	e1a00fc4 	asr	r0, r4, #31
  300074:	e06000c3 	rsb	r0, r0, r3, asr #1
  300078:	e0800100 	add	r0, r0, r0, lsl #2
  30007c:	e0600004 	rsb	r0, r0, r4
  300080:	eb00357e 	bl	30d680 <__aeabi_i2f>
  300084:	e7850104 	str	r0, [r5, r4, lsl #2]
  300088:	e7950104 	ldr	r0, [r5, r4, lsl #2]
  30008c:	eb003323 	bl	30cd20 <__aeabi_f2d>
  300090:	e1a02000 	mov	r2, r0
  300094:	e1a03001 	mov	r3, r1
  300098:	e1a00006 	mov	r0, r6
  30009c:	eb001124 	bl	304534 <printf>
  3000a0:	e2844001 	add	r4, r4, #1
  3000a4:	e3540d19 	cmp	r4, #1600	; 0x640
  3000a8:	1affffef 	bne	30006c <main+0x38>
  3000ac:	e3014940 	movw	r4, #6464	; 0x1940
  3000b0:	e3404031 	movt	r4, #49	; 0x31
  3000b4:	e1a00008 	mov	r0, r8
  3000b8:	e3001040 	movw	r1, #64	; 0x40
  3000bc:	e3401031 	movt	r1, #49	; 0x31
  3000c0:	e1a02004 	mov	r2, r4
  3000c4:	eb00057c 	bl	3016bc <kiss_fftr>
  3000c8:	e3a08000 	mov	r8, #0
  3000cc:	e3a0a000 	mov	sl, #0
  3000d0:	e3a05001 	mov	r5, #1
  3000d4:	e3009156 	movw	r9, #342	; 0x156
  3000d8:	e594600c 	ldr	r6, [r4, #12]
  3000dc:	e5940008 	ldr	r0, [r4, #8]
  3000e0:	e1a01000 	mov	r1, r0
  3000e4:	eb00359c 	bl	30d75c <__aeabi_fmul>
  3000e8:	e1a07000 	mov	r7, r0
  3000ec:	e1a00006 	mov	r0, r6
  3000f0:	e1a01006 	mov	r1, r6
  3000f4:	eb003598 	bl	30d75c <__aeabi_fmul>
  3000f8:	e1a01000 	mov	r1, r0
  3000fc:	e1a00007 	mov	r0, r7
  300100:	eb0034ed 	bl	30d4bc <__addsf3>
  300104:	e1a06000 	mov	r6, r0
  300108:	e1a01008 	mov	r1, r8
  30010c:	eb00368f 	bl	30db50 <__aeabi_fcmpgt>
  300110:	e3500000 	cmp	r0, #0
  300114:	11a08006 	movne	r8, r6
  300118:	11a0a005 	movne	sl, r5
  30011c:	e2855001 	add	r5, r5, #1
  300120:	e2844008 	add	r4, r4, #8
  300124:	e1550009 	cmp	r5, r9
  300128:	1affffea 	bne	3000d8 <main+0xa4>
  30012c:	e1a0000a 	mov	r0, sl
  300130:	eb0032f0 	bl	30ccf8 <__aeabi_i2d>
  300134:	e308272b 	movw	r2, #34603	; 0x872b
  300138:	e34d2916 	movt	r2, #55574	; 0xd916
  30013c:	e30f37ce 	movw	r3, #63438	; 0xf7ce
  300140:	e3433fef 	movt	r3, #16367	; 0x3fef
  300144:	eb003322 	bl	30cdd4 <__aeabi_dmul>
  300148:	e1a02000 	mov	r2, r0
  30014c:	e1a03001 	mov	r3, r1
  300150:	e30e0384 	movw	r0, #58244	; 0xe384
  300154:	e3400030 	movt	r0, #48	; 0x30
  300158:	eb0010f5 	bl	304534 <printf>
  30015c:	e3a00000 	mov	r0, #0
  300160:	e8bd87f0 	pop	{r4, r5, r6, r7, r8, r9, sl, pc}

00300164 <kf_work>:
  300164:	e92d4ff0 	push	{r4, r5, r6, r7, r8, r9, sl, fp, lr}
  300168:	e24dd07c 	sub	sp, sp, #124	; 0x7c
  30016c:	e1a0b000 	mov	fp, r0
  300170:	e1a04001 	mov	r4, r1
  300174:	e58d2054 	str	r2, [sp, #84]	; 0x54
  300178:	e58d3008 	str	r3, [sp, #8]
  30017c:	e59d70a0 	ldr	r7, [sp, #160]	; 0xa0
  300180:	e59d90a4 	ldr	r9, [sp, #164]	; 0xa4
  300184:	e5973000 	ldr	r3, [r7]
  300188:	e1a02003 	mov	r2, r3
  30018c:	e58d3030 	str	r3, [sp, #48]	; 0x30
  300190:	e5973004 	ldr	r3, [r7, #4]
  300194:	e58d304c 	str	r3, [sp, #76]	; 0x4c
  300198:	e0060293 	mul	r6, r3, r2
  30019c:	e0806186 	add	r6, r0, r6, lsl #3
  3001a0:	e3530001 	cmp	r3, #1
  3001a4:	1a00000b 	bne	3001d8 <kf_work+0x74>
  3001a8:	e59d3054 	ldr	r3, [sp, #84]	; 0x54
  3001ac:	e1a03183 	lsl	r3, r3, #3
  3001b0:	e59d2008 	ldr	r2, [sp, #8]
  3001b4:	e0020392 	mul	r2, r2, r3
  3001b8:	e1a03000 	mov	r3, r0
  3001bc:	e8940003 	ldm	r4, {r0, r1}
  3001c0:	e8830003 	stm	r3, {r0, r1}
  3001c4:	e0844002 	add	r4, r4, r2
  3001c8:	e2833008 	add	r3, r3, #8
  3001cc:	e1530006 	cmp	r3, r6
  3001d0:	1afffff9 	bne	3001bc <kf_work+0x58>
  3001d4:	ea000400 	b	3011dc <kf_work+0x1078>
  3001d8:	e59d3054 	ldr	r3, [sp, #84]	; 0x54
  3001dc:	e59d2030 	ldr	r2, [sp, #48]	; 0x30
  3001e0:	e0020293 	mul	r2, r3, r2
  3001e4:	e58d200c 	str	r2, [sp, #12]
  3001e8:	e1a08183 	lsl	r8, r3, #3
  3001ec:	e59d3008 	ldr	r3, [sp, #8]
  3001f0:	e0080893 	mul	r8, r3, r8
  3001f4:	e59d304c 	ldr	r3, [sp, #76]	; 0x4c
  3001f8:	e1a0a183 	lsl	sl, r3, #3
  3001fc:	e1a05000 	mov	r5, r0
  300200:	e2877008 	add	r7, r7, #8
  300204:	e58d7000 	str	r7, [sp]
  300208:	e58d9004 	str	r9, [sp, #4]
  30020c:	e1a00005 	mov	r0, r5
  300210:	e1a01004 	mov	r1, r4
  300214:	e59d200c 	ldr	r2, [sp, #12]
  300218:	e59d3008 	ldr	r3, [sp, #8]
  30021c:	ebffffd0 	bl	300164 <kf_work>
  300220:	e0844008 	add	r4, r4, r8
  300224:	e085500a 	add	r5, r5, sl
  300228:	e1550006 	cmp	r5, r6
  30022c:	1afffff4 	bne	300204 <kf_work+0xa0>
  300230:	e59d3030 	ldr	r3, [sp, #48]	; 0x30
  300234:	e2433002 	sub	r3, r3, #2
  300238:	e3530003 	cmp	r3, #3
  30023c:	979ff103 	ldrls	pc, [pc, r3, lsl #2]
  300240:	ea000352 	b	300f90 <kf_work+0xe2c>
  300244:	00300254 	eorseq	r0, r0, r4, asr r2
  300248:	00300340 	eorseq	r0, r0, r0, asr #6
  30024c:	003005e8 	eorseq	r0, r0, r8, ror #11
  300250:	003009b0 	ldrhteq	r0, [r0], -r0
  300254:	e2896f42 	add	r6, r9, #264	; 0x108
  300258:	e59d3054 	ldr	r3, [sp, #84]	; 0x54
  30025c:	e1a03183 	lsl	r3, r3, #3
  300260:	e58d300c 	str	r3, [sp, #12]
  300264:	e59d304c 	ldr	r3, [sp, #76]	; 0x4c
  300268:	e08b5183 	add	r5, fp, r3, lsl #3
  30026c:	e2855008 	add	r5, r5, #8
  300270:	e28b4008 	add	r4, fp, #8
  300274:	e1a07003 	mov	r7, r3
  300278:	e515b008 	ldr	fp, [r5, #-8]
  30027c:	e5969000 	ldr	r9, [r6]
  300280:	e5158004 	ldr	r8, [r5, #-4]
  300284:	e596a004 	ldr	sl, [r6, #4]
  300288:	e1a0000b 	mov	r0, fp
  30028c:	e1a01009 	mov	r1, r9
  300290:	eb003531 	bl	30d75c <__aeabi_fmul>
  300294:	e58d0008 	str	r0, [sp, #8]
  300298:	e1a00008 	mov	r0, r8
  30029c:	e1a0100a 	mov	r1, sl
  3002a0:	eb00352d 	bl	30d75c <__aeabi_fmul>
  3002a4:	e1a01000 	mov	r1, r0
  3002a8:	e59d0008 	ldr	r0, [sp, #8]
  3002ac:	eb003481 	bl	30d4b8 <__aeabi_fsub>
  3002b0:	e58d0008 	str	r0, [sp, #8]
  3002b4:	e1a0000b 	mov	r0, fp
  3002b8:	e1a0100a 	mov	r1, sl
  3002bc:	eb003526 	bl	30d75c <__aeabi_fmul>
  3002c0:	e1a0a000 	mov	sl, r0
  3002c4:	e1a00009 	mov	r0, r9
  3002c8:	e1a01008 	mov	r1, r8
  3002cc:	eb003522 	bl	30d75c <__aeabi_fmul>
  3002d0:	e1a01000 	mov	r1, r0
  3002d4:	e1a0000a 	mov	r0, sl
  3002d8:	eb003477 	bl	30d4bc <__addsf3>
  3002dc:	e1a08000 	mov	r8, r0
  3002e0:	e59d300c 	ldr	r3, [sp, #12]
  3002e4:	e0866003 	add	r6, r6, r3
  3002e8:	e5140008 	ldr	r0, [r4, #-8]
  3002ec:	e59d9008 	ldr	r9, [sp, #8]
  3002f0:	e1a01009 	mov	r1, r9
  3002f4:	eb00346f 	bl	30d4b8 <__aeabi_fsub>
  3002f8:	e5050008 	str	r0, [r5, #-8]
  3002fc:	e5140004 	ldr	r0, [r4, #-4]
  300300:	e1a01008 	mov	r1, r8
  300304:	eb00346b 	bl	30d4b8 <__aeabi_fsub>
  300308:	e5050004 	str	r0, [r5, #-4]
  30030c:	e5140008 	ldr	r0, [r4, #-8]
  300310:	e1a01009 	mov	r1, r9
  300314:	eb003468 	bl	30d4bc <__addsf3>
  300318:	e5040008 	str	r0, [r4, #-8]
  30031c:	e5140004 	ldr	r0, [r4, #-4]
  300320:	e1a01008 	mov	r1, r8
  300324:	eb003464 	bl	30d4bc <__addsf3>
  300328:	e5040004 	str	r0, [r4, #-4]
  30032c:	e2855008 	add	r5, r5, #8
  300330:	e2844008 	add	r4, r4, #8
  300334:	e2577001 	subs	r7, r7, #1
  300338:	1affffce 	bne	300278 <kf_work+0x114>
  30033c:	ea0003af 	b	301200 <kf_work+0x109c>
  300340:	e59d204c 	ldr	r2, [sp, #76]	; 0x4c
  300344:	e58d201c 	str	r2, [sp, #28]
  300348:	e59d1054 	ldr	r1, [sp, #84]	; 0x54
  30034c:	e0030291 	mul	r3, r1, r2
  300350:	e0893183 	add	r3, r9, r3, lsl #3
  300354:	e593310c 	ldr	r3, [r3, #268]	; 0x10c
  300358:	e58d3018 	str	r3, [sp, #24]
  30035c:	e2898f42 	add	r8, r9, #264	; 0x108
  300360:	e1a03182 	lsl	r3, r2, #3
  300364:	e1a07202 	lsl	r7, r2, #4
  300368:	e1a02181 	lsl	r2, r1, #3
  30036c:	e58d2034 	str	r2, [sp, #52]	; 0x34
  300370:	e1a02201 	lsl	r2, r1, #4
  300374:	e58d2038 	str	r2, [sp, #56]	; 0x38
  300378:	e08b4003 	add	r4, fp, r3
  30037c:	e2833004 	add	r3, r3, #4
  300380:	e08ba003 	add	sl, fp, r3
  300384:	e28b5004 	add	r5, fp, #4
  300388:	e1a06008 	mov	r6, r8
  30038c:	e1a09004 	mov	r9, r4
  300390:	e1a04007 	mov	r4, r7
  300394:	e51a3004 	ldr	r3, [sl, #-4]
  300398:	e5982000 	ldr	r2, [r8]
  30039c:	e5991004 	ldr	r1, [r9, #4]
  3003a0:	e58d1008 	str	r1, [sp, #8]
  3003a4:	e5987004 	ldr	r7, [r8, #4]
  3003a8:	e58d3010 	str	r3, [sp, #16]
  3003ac:	e1a00003 	mov	r0, r3
  3003b0:	e58d2014 	str	r2, [sp, #20]
  3003b4:	e1a01002 	mov	r1, r2
  3003b8:	eb0034e7 	bl	30d75c <__aeabi_fmul>
  3003bc:	e58d000c 	str	r0, [sp, #12]
  3003c0:	e59d0008 	ldr	r0, [sp, #8]
  3003c4:	e1a01007 	mov	r1, r7
  3003c8:	eb0034e3 	bl	30d75c <__aeabi_fmul>
  3003cc:	e1a01000 	mov	r1, r0
  3003d0:	e59d000c 	ldr	r0, [sp, #12]
  3003d4:	eb003437 	bl	30d4b8 <__aeabi_fsub>
  3003d8:	e58d000c 	str	r0, [sp, #12]
  3003dc:	e59d0010 	ldr	r0, [sp, #16]
  3003e0:	e1a01007 	mov	r1, r7
  3003e4:	eb0034dc 	bl	30d75c <__aeabi_fmul>
  3003e8:	e1a07000 	mov	r7, r0
  3003ec:	e59d0014 	ldr	r0, [sp, #20]
  3003f0:	e59d1008 	ldr	r1, [sp, #8]
  3003f4:	eb0034d8 	bl	30d75c <__aeabi_fmul>
  3003f8:	e1a01000 	mov	r1, r0
  3003fc:	e1a00007 	mov	r0, r7
  300400:	eb00342d 	bl	30d4bc <__addsf3>
  300404:	e58d0010 	str	r0, [sp, #16]
  300408:	e79b3004 	ldr	r3, [fp, r4]
  30040c:	e5962000 	ldr	r2, [r6]
  300410:	e7951004 	ldr	r1, [r5, r4]
  300414:	e58d1008 	str	r1, [sp, #8]
  300418:	e5967004 	ldr	r7, [r6, #4]
  30041c:	e58d3030 	str	r3, [sp, #48]	; 0x30
  300420:	e1a00003 	mov	r0, r3
  300424:	e58d2020 	str	r2, [sp, #32]
  300428:	e1a01002 	mov	r1, r2
  30042c:	eb0034ca 	bl	30d75c <__aeabi_fmul>
  300430:	e58d0014 	str	r0, [sp, #20]
  300434:	e59d0008 	ldr	r0, [sp, #8]
  300438:	e1a01007 	mov	r1, r7
  30043c:	eb0034c6 	bl	30d75c <__aeabi_fmul>
  300440:	e1a01000 	mov	r1, r0
  300444:	e59d0014 	ldr	r0, [sp, #20]
  300448:	eb00341a 	bl	30d4b8 <__aeabi_fsub>
  30044c:	e58d0014 	str	r0, [sp, #20]
  300450:	e59d0030 	ldr	r0, [sp, #48]	; 0x30
  300454:	e1a01007 	mov	r1, r7
  300458:	eb0034bf 	bl	30d75c <__aeabi_fmul>
  30045c:	e1a07000 	mov	r7, r0
  300460:	e59d0020 	ldr	r0, [sp, #32]
  300464:	e59d1008 	ldr	r1, [sp, #8]
  300468:	eb0034bb 	bl	30d75c <__aeabi_fmul>
  30046c:	e1a01000 	mov	r1, r0
  300470:	e1a00007 	mov	r0, r7
  300474:	eb003410 	bl	30d4bc <__addsf3>
  300478:	e1a07000 	mov	r7, r0
  30047c:	e59d000c 	ldr	r0, [sp, #12]
  300480:	e59d1014 	ldr	r1, [sp, #20]
  300484:	eb00340c 	bl	30d4bc <__addsf3>
  300488:	e58d0008 	str	r0, [sp, #8]
  30048c:	e59d0010 	ldr	r0, [sp, #16]
  300490:	e58d7030 	str	r7, [sp, #48]	; 0x30
  300494:	e1a01007 	mov	r1, r7
  300498:	eb003407 	bl	30d4bc <__addsf3>
  30049c:	e1a07000 	mov	r7, r0
  3004a0:	e59d3034 	ldr	r3, [sp, #52]	; 0x34
  3004a4:	e0888003 	add	r8, r8, r3
  3004a8:	e59d3038 	ldr	r3, [sp, #56]	; 0x38
  3004ac:	e0866003 	add	r6, r6, r3
  3004b0:	e5150004 	ldr	r0, [r5, #-4]
  3004b4:	eb003219 	bl	30cd20 <__aeabi_f2d>
  3004b8:	e1cd02f0 	strd	r0, [sp, #32]
  3004bc:	e59d0008 	ldr	r0, [sp, #8]
  3004c0:	eb003216 	bl	30cd20 <__aeabi_f2d>
  3004c4:	e3a02000 	mov	r2, #0
  3004c8:	e3a03000 	mov	r3, #0
  3004cc:	e3433fe0 	movt	r3, #16352	; 0x3fe0
  3004d0:	eb00323f 	bl	30cdd4 <__aeabi_dmul>
  3004d4:	e1a02000 	mov	r2, r0
  3004d8:	e1a03001 	mov	r3, r1
  3004dc:	e1cd02d0 	ldrd	r0, [sp, #32]
  3004e0:	eb003136 	bl	30c9c0 <__aeabi_dsub>
  3004e4:	eb0033c9 	bl	30d410 <__aeabi_d2f>
  3004e8:	e50a0004 	str	r0, [sl, #-4]
  3004ec:	e59b0004 	ldr	r0, [fp, #4]
  3004f0:	eb00320a 	bl	30cd20 <__aeabi_f2d>
  3004f4:	e1cd02f8 	strd	r0, [sp, #40]	; 0x28
  3004f8:	e58d7020 	str	r7, [sp, #32]
  3004fc:	e1a00007 	mov	r0, r7
  300500:	eb003206 	bl	30cd20 <__aeabi_f2d>
  300504:	e3a02000 	mov	r2, #0
  300508:	e3a03000 	mov	r3, #0
  30050c:	e3433fe0 	movt	r3, #16352	; 0x3fe0
  300510:	eb00322f 	bl	30cdd4 <__aeabi_dmul>
  300514:	e1a02000 	mov	r2, r0
  300518:	e1a03001 	mov	r3, r1
  30051c:	e1cd02d8 	ldrd	r0, [sp, #40]	; 0x28
  300520:	eb003126 	bl	30c9c0 <__aeabi_dsub>
  300524:	eb0033b9 	bl	30d410 <__aeabi_d2f>
  300528:	e5890004 	str	r0, [r9, #4]
  30052c:	e59d000c 	ldr	r0, [sp, #12]
  300530:	e59d1014 	ldr	r1, [sp, #20]
  300534:	eb0033df 	bl	30d4b8 <__aeabi_fsub>
  300538:	e1a01000 	mov	r1, r0
  30053c:	e59d0018 	ldr	r0, [sp, #24]
  300540:	eb003485 	bl	30d75c <__aeabi_fmul>
  300544:	e1a07000 	mov	r7, r0
  300548:	e59d0010 	ldr	r0, [sp, #16]
  30054c:	e59d1030 	ldr	r1, [sp, #48]	; 0x30
  300550:	eb0033d8 	bl	30d4b8 <__aeabi_fsub>
  300554:	e1a01000 	mov	r1, r0
  300558:	e59d0018 	ldr	r0, [sp, #24]
  30055c:	eb00347e 	bl	30d75c <__aeabi_fmul>
  300560:	e58d000c 	str	r0, [sp, #12]
  300564:	e5150004 	ldr	r0, [r5, #-4]
  300568:	e59d1008 	ldr	r1, [sp, #8]
  30056c:	eb0033d2 	bl	30d4bc <__addsf3>
  300570:	e5050004 	str	r0, [r5, #-4]
  300574:	e59b0004 	ldr	r0, [fp, #4]
  300578:	e59d1020 	ldr	r1, [sp, #32]
  30057c:	eb0033ce 	bl	30d4bc <__addsf3>
  300580:	e58b0004 	str	r0, [fp, #4]
  300584:	e59d000c 	ldr	r0, [sp, #12]
  300588:	e51a1004 	ldr	r1, [sl, #-4]
  30058c:	eb0033ca 	bl	30d4bc <__addsf3>
  300590:	e78b0004 	str	r0, [fp, r4]
  300594:	e5990004 	ldr	r0, [r9, #4]
  300598:	e1a01007 	mov	r1, r7
  30059c:	eb0033c5 	bl	30d4b8 <__aeabi_fsub>
  3005a0:	e7850004 	str	r0, [r5, r4]
  3005a4:	e51a0004 	ldr	r0, [sl, #-4]
  3005a8:	e59d100c 	ldr	r1, [sp, #12]
  3005ac:	eb0033c1 	bl	30d4b8 <__aeabi_fsub>
  3005b0:	e50a0004 	str	r0, [sl, #-4]
  3005b4:	e5990004 	ldr	r0, [r9, #4]
  3005b8:	e1a01007 	mov	r1, r7
  3005bc:	eb0033be 	bl	30d4bc <__addsf3>
  3005c0:	e5890004 	str	r0, [r9, #4]
  3005c4:	e28bb008 	add	fp, fp, #8
  3005c8:	e2899008 	add	r9, r9, #8
  3005cc:	e28aa008 	add	sl, sl, #8
  3005d0:	e2855008 	add	r5, r5, #8
  3005d4:	e59d301c 	ldr	r3, [sp, #28]
  3005d8:	e2533001 	subs	r3, r3, #1
  3005dc:	e58d301c 	str	r3, [sp, #28]
  3005e0:	1affff6b 	bne	300394 <kf_work+0x230>
  3005e4:	ea000305 	b	301200 <kf_work+0x109c>
  3005e8:	e59d004c 	ldr	r0, [sp, #76]	; 0x4c
  3005ec:	e58d003c 	str	r0, [sp, #60]	; 0x3c
  3005f0:	e289af42 	add	sl, r9, #264	; 0x108
  3005f4:	e1a03180 	lsl	r3, r0, #3
  3005f8:	e0802080 	add	r2, r0, r0, lsl #1
  3005fc:	e59d1054 	ldr	r1, [sp, #84]	; 0x54
  300600:	e1a0c181 	lsl	ip, r1, #3
  300604:	e58dc040 	str	ip, [sp, #64]	; 0x40
  300608:	e1a0c201 	lsl	ip, r1, #4
  30060c:	e58dc044 	str	ip, [sp, #68]	; 0x44
  300610:	e0811081 	add	r1, r1, r1, lsl #1
  300614:	e1a01181 	lsl	r1, r1, #3
  300618:	e58d1048 	str	r1, [sp, #72]	; 0x48
  30061c:	e28b4008 	add	r4, fp, #8
  300620:	e08b1003 	add	r1, fp, r3
  300624:	e58d1034 	str	r1, [sp, #52]	; 0x34
  300628:	e58d100c 	str	r1, [sp, #12]
  30062c:	e0811003 	add	r1, r1, r3
  300630:	e58d104c 	str	r1, [sp, #76]	; 0x4c
  300634:	e1a07001 	mov	r7, r1
  300638:	e0813003 	add	r3, r1, r3
  30063c:	e58d3050 	str	r3, [sp, #80]	; 0x50
  300640:	e58d3010 	str	r3, [sp, #16]
  300644:	e58da008 	str	sl, [sp, #8]
  300648:	e3a05000 	mov	r5, #0
  30064c:	e08b3200 	add	r3, fp, r0, lsl #4
  300650:	e58d3054 	str	r3, [sp, #84]	; 0x54
  300654:	e08b3182 	add	r3, fp, r2, lsl #3
  300658:	e58d3058 	str	r3, [sp, #88]	; 0x58
  30065c:	e1a0b00a 	mov	fp, sl
  300660:	e58d90a4 	str	r9, [sp, #164]	; 0xa4
  300664:	e59d3034 	ldr	r3, [sp, #52]	; 0x34
  300668:	e7933185 	ldr	r3, [r3, r5, lsl #3]
  30066c:	e59b8000 	ldr	r8, [fp]
  300670:	e59d200c 	ldr	r2, [sp, #12]
  300674:	e5926004 	ldr	r6, [r2, #4]
  300678:	e59b9004 	ldr	r9, [fp, #4]
  30067c:	e58d3018 	str	r3, [sp, #24]
  300680:	e1a00003 	mov	r0, r3
  300684:	e1a01008 	mov	r1, r8
  300688:	eb003433 	bl	30d75c <__aeabi_fmul>
  30068c:	e58d0014 	str	r0, [sp, #20]
  300690:	e1a00006 	mov	r0, r6
  300694:	e1a01009 	mov	r1, r9
  300698:	eb00342f 	bl	30d75c <__aeabi_fmul>
  30069c:	e1a01000 	mov	r1, r0
  3006a0:	e59d0014 	ldr	r0, [sp, #20]
  3006a4:	eb003383 	bl	30d4b8 <__aeabi_fsub>
  3006a8:	e58d0014 	str	r0, [sp, #20]
  3006ac:	e59d0018 	ldr	r0, [sp, #24]
  3006b0:	e1a01009 	mov	r1, r9
  3006b4:	eb003428 	bl	30d75c <__aeabi_fmul>
  3006b8:	e1a09000 	mov	r9, r0
  3006bc:	e1a00008 	mov	r0, r8
  3006c0:	e1a01006 	mov	r1, r6
  3006c4:	eb003424 	bl	30d75c <__aeabi_fmul>
  3006c8:	e1a01000 	mov	r1, r0
  3006cc:	e1a00009 	mov	r0, r9
  3006d0:	eb003379 	bl	30d4bc <__addsf3>
  3006d4:	e58d0018 	str	r0, [sp, #24]
  3006d8:	e59d304c 	ldr	r3, [sp, #76]	; 0x4c
  3006dc:	e7933185 	ldr	r3, [r3, r5, lsl #3]
  3006e0:	e1a02003 	mov	r2, r3
  3006e4:	e59d3008 	ldr	r3, [sp, #8]
  3006e8:	e5938000 	ldr	r8, [r3]
  3006ec:	e5976004 	ldr	r6, [r7, #4]
  3006f0:	e5939004 	ldr	r9, [r3, #4]
  3006f4:	e58d2030 	str	r2, [sp, #48]	; 0x30
  3006f8:	e1a00002 	mov	r0, r2
  3006fc:	e1a01008 	mov	r1, r8
  300700:	eb003415 	bl	30d75c <__aeabi_fmul>
  300704:	e58d001c 	str	r0, [sp, #28]
  300708:	e1a00006 	mov	r0, r6
  30070c:	e1a01009 	mov	r1, r9
  300710:	eb003411 	bl	30d75c <__aeabi_fmul>
  300714:	e1a01000 	mov	r1, r0
  300718:	e59d001c 	ldr	r0, [sp, #28]
  30071c:	eb003365 	bl	30d4b8 <__aeabi_fsub>
  300720:	e58d001c 	str	r0, [sp, #28]
  300724:	e59d0030 	ldr	r0, [sp, #48]	; 0x30
  300728:	e1a01009 	mov	r1, r9
  30072c:	eb00340a 	bl	30d75c <__aeabi_fmul>
  300730:	e1a09000 	mov	r9, r0
  300734:	e1a00008 	mov	r0, r8
  300738:	e1a01006 	mov	r1, r6
  30073c:	eb003406 	bl	30d75c <__aeabi_fmul>
  300740:	e1a01000 	mov	r1, r0
  300744:	e1a00009 	mov	r0, r9
  300748:	eb00335b 	bl	30d4bc <__addsf3>
  30074c:	e58d0030 	str	r0, [sp, #48]	; 0x30
  300750:	e59d2050 	ldr	r2, [sp, #80]	; 0x50
  300754:	e7922185 	ldr	r2, [r2, r5, lsl #3]
  300758:	e59a8000 	ldr	r8, [sl]
  30075c:	e59d1010 	ldr	r1, [sp, #16]
  300760:	e5916004 	ldr	r6, [r1, #4]
  300764:	e59a9004 	ldr	r9, [sl, #4]
  300768:	e58d2028 	str	r2, [sp, #40]	; 0x28
  30076c:	e1a00002 	mov	r0, r2
  300770:	e1a01008 	mov	r1, r8
  300774:	eb0033f8 	bl	30d75c <__aeabi_fmul>
  300778:	e58d0020 	str	r0, [sp, #32]
  30077c:	e1a00006 	mov	r0, r6
  300780:	e1a01009 	mov	r1, r9
  300784:	eb0033f4 	bl	30d75c <__aeabi_fmul>
  300788:	e1a01000 	mov	r1, r0
  30078c:	e59d0020 	ldr	r0, [sp, #32]
  300790:	eb003348 	bl	30d4b8 <__aeabi_fsub>
  300794:	e58d0020 	str	r0, [sp, #32]
  300798:	e59d0028 	ldr	r0, [sp, #40]	; 0x28
  30079c:	e1a01009 	mov	r1, r9
  3007a0:	eb0033ed 	bl	30d75c <__aeabi_fmul>
  3007a4:	e1a09000 	mov	r9, r0
  3007a8:	e1a00008 	mov	r0, r8
  3007ac:	e1a01006 	mov	r1, r6
  3007b0:	eb0033e9 	bl	30d75c <__aeabi_fmul>
  3007b4:	e1a01000 	mov	r1, r0
  3007b8:	e1a00009 	mov	r0, r9
  3007bc:	eb00333e 	bl	30d4bc <__addsf3>
  3007c0:	e1a09000 	mov	r9, r0
  3007c4:	e5146008 	ldr	r6, [r4, #-8]
  3007c8:	e1a00006 	mov	r0, r6
  3007cc:	e59d101c 	ldr	r1, [sp, #28]
  3007d0:	eb003338 	bl	30d4b8 <__aeabi_fsub>
  3007d4:	e58d0028 	str	r0, [sp, #40]	; 0x28
  3007d8:	e5148004 	ldr	r8, [r4, #-4]
  3007dc:	e1a00008 	mov	r0, r8
  3007e0:	e59d1030 	ldr	r1, [sp, #48]	; 0x30
  3007e4:	eb003333 	bl	30d4b8 <__aeabi_fsub>
  3007e8:	e58d0038 	str	r0, [sp, #56]	; 0x38
  3007ec:	e59d001c 	ldr	r0, [sp, #28]
  3007f0:	e1a01006 	mov	r1, r6
  3007f4:	eb003330 	bl	30d4bc <__addsf3>
  3007f8:	e1a06000 	mov	r6, r0
  3007fc:	e5040008 	str	r0, [r4, #-8]
  300800:	e59d0030 	ldr	r0, [sp, #48]	; 0x30
  300804:	e1a01008 	mov	r1, r8
  300808:	eb00332b 	bl	30d4bc <__addsf3>
  30080c:	e5040004 	str	r0, [r4, #-4]
  300810:	e59d0014 	ldr	r0, [sp, #20]
  300814:	e59d1020 	ldr	r1, [sp, #32]
  300818:	eb003327 	bl	30d4bc <__addsf3>
  30081c:	e1a08000 	mov	r8, r0
  300820:	e59d0018 	ldr	r0, [sp, #24]
  300824:	e1a01009 	mov	r1, r9
  300828:	eb003323 	bl	30d4bc <__addsf3>
  30082c:	e58d001c 	str	r0, [sp, #28]
  300830:	e59d0014 	ldr	r0, [sp, #20]
  300834:	e59d1020 	ldr	r1, [sp, #32]
  300838:	eb00331e 	bl	30d4b8 <__aeabi_fsub>
  30083c:	e58d0014 	str	r0, [sp, #20]
  300840:	e59d0018 	ldr	r0, [sp, #24]
  300844:	e1a01009 	mov	r1, r9
  300848:	eb00331a 	bl	30d4b8 <__aeabi_fsub>
  30084c:	e1a09000 	mov	r9, r0
  300850:	e1a00006 	mov	r0, r6
  300854:	e1a01008 	mov	r1, r8
  300858:	eb003316 	bl	30d4b8 <__aeabi_fsub>
  30085c:	e59d2054 	ldr	r2, [sp, #84]	; 0x54
  300860:	e7820185 	str	r0, [r2, r5, lsl #3]
  300864:	e5140004 	ldr	r0, [r4, #-4]
  300868:	e59d601c 	ldr	r6, [sp, #28]
  30086c:	e1a01006 	mov	r1, r6
  300870:	eb003310 	bl	30d4b8 <__aeabi_fsub>
  300874:	e5870004 	str	r0, [r7, #4]
  300878:	e59d2040 	ldr	r2, [sp, #64]	; 0x40
  30087c:	e08bb002 	add	fp, fp, r2
  300880:	e59d3008 	ldr	r3, [sp, #8]
  300884:	e59d2044 	ldr	r2, [sp, #68]	; 0x44
  300888:	e0833002 	add	r3, r3, r2
  30088c:	e58d3008 	str	r3, [sp, #8]
  300890:	e59d3048 	ldr	r3, [sp, #72]	; 0x48
  300894:	e08aa003 	add	sl, sl, r3
  300898:	e5140008 	ldr	r0, [r4, #-8]
  30089c:	e1a01008 	mov	r1, r8
  3008a0:	eb003305 	bl	30d4bc <__addsf3>
  3008a4:	e5040008 	str	r0, [r4, #-8]
  3008a8:	e5140004 	ldr	r0, [r4, #-4]
  3008ac:	e1a01006 	mov	r1, r6
  3008b0:	eb003301 	bl	30d4bc <__addsf3>
  3008b4:	e5040004 	str	r0, [r4, #-4]
  3008b8:	e59d30a4 	ldr	r3, [sp, #164]	; 0xa4
  3008bc:	e5933004 	ldr	r3, [r3, #4]
  3008c0:	e3530000 	cmp	r3, #0
  3008c4:	0a000016 	beq	300924 <kf_work+0x7c0>
  3008c8:	e59d0028 	ldr	r0, [sp, #40]	; 0x28
  3008cc:	e1a01009 	mov	r1, r9
  3008d0:	eb0032f8 	bl	30d4b8 <__aeabi_fsub>
  3008d4:	e59d3034 	ldr	r3, [sp, #52]	; 0x34
  3008d8:	e7830185 	str	r0, [r3, r5, lsl #3]
  3008dc:	e59d8038 	ldr	r8, [sp, #56]	; 0x38
  3008e0:	e1a00008 	mov	r0, r8
  3008e4:	e59d6014 	ldr	r6, [sp, #20]
  3008e8:	e1a01006 	mov	r1, r6
  3008ec:	eb0032f2 	bl	30d4bc <__addsf3>
  3008f0:	e59d300c 	ldr	r3, [sp, #12]
  3008f4:	e5830004 	str	r0, [r3, #4]
  3008f8:	e59d0028 	ldr	r0, [sp, #40]	; 0x28
  3008fc:	e1a01009 	mov	r1, r9
  300900:	eb0032ed 	bl	30d4bc <__addsf3>
  300904:	e59d3058 	ldr	r3, [sp, #88]	; 0x58
  300908:	e7830185 	str	r0, [r3, r5, lsl #3]
  30090c:	e1a00008 	mov	r0, r8
  300910:	e1a01006 	mov	r1, r6
  300914:	eb0032e7 	bl	30d4b8 <__aeabi_fsub>
  300918:	e59d3010 	ldr	r3, [sp, #16]
  30091c:	e5830004 	str	r0, [r3, #4]
  300920:	ea000015 	b	30097c <kf_work+0x818>
  300924:	e59d0028 	ldr	r0, [sp, #40]	; 0x28
  300928:	e1a01009 	mov	r1, r9
  30092c:	eb0032e2 	bl	30d4bc <__addsf3>
  300930:	e59d3034 	ldr	r3, [sp, #52]	; 0x34
  300934:	e7830185 	str	r0, [r3, r5, lsl #3]
  300938:	e59d8038 	ldr	r8, [sp, #56]	; 0x38
  30093c:	e1a00008 	mov	r0, r8
  300940:	e59d6014 	ldr	r6, [sp, #20]
  300944:	e1a01006 	mov	r1, r6
  300948:	eb0032da 	bl	30d4b8 <__aeabi_fsub>
  30094c:	e59d300c 	ldr	r3, [sp, #12]
  300950:	e5830004 	str	r0, [r3, #4]
  300954:	e59d0028 	ldr	r0, [sp, #40]	; 0x28
  300958:	e1a01009 	mov	r1, r9
  30095c:	eb0032d5 	bl	30d4b8 <__aeabi_fsub>
  300960:	e59d3058 	ldr	r3, [sp, #88]	; 0x58
  300964:	e7830185 	str	r0, [r3, r5, lsl #3]
  300968:	e1a00008 	mov	r0, r8
  30096c:	e1a01006 	mov	r1, r6
  300970:	eb0032d1 	bl	30d4bc <__addsf3>
  300974:	e59d3010 	ldr	r3, [sp, #16]
  300978:	e5830004 	str	r0, [r3, #4]
  30097c:	e2855001 	add	r5, r5, #1
  300980:	e2844008 	add	r4, r4, #8
  300984:	e59d300c 	ldr	r3, [sp, #12]
  300988:	e2833008 	add	r3, r3, #8
  30098c:	e58d300c 	str	r3, [sp, #12]
  300990:	e2877008 	add	r7, r7, #8
  300994:	e59d3010 	ldr	r3, [sp, #16]
  300998:	e2833008 	add	r3, r3, #8
  30099c:	e58d3010 	str	r3, [sp, #16]
  3009a0:	e59d303c 	ldr	r3, [sp, #60]	; 0x3c
  3009a4:	e1530005 	cmp	r3, r5
  3009a8:	1affff2d 	bne	300664 <kf_work+0x500>
  3009ac:	ea000213 	b	301200 <kf_work+0x109c>
  3009b0:	e2893f42 	add	r3, r9, #264	; 0x108
  3009b4:	e1a00003 	mov	r0, r3
  3009b8:	e58d3008 	str	r3, [sp, #8]
  3009bc:	e59dc054 	ldr	ip, [sp, #84]	; 0x54
  3009c0:	e59de04c 	ldr	lr, [sp, #76]	; 0x4c
  3009c4:	e0010e9c 	mul	r1, ip, lr
  3009c8:	e1a03181 	lsl	r3, r1, #3
  3009cc:	e0802003 	add	r2, r0, r3
  3009d0:	e7900181 	ldr	r0, [r0, r1, lsl #3]
  3009d4:	e58d000c 	str	r0, [sp, #12]
  3009d8:	e5920004 	ldr	r0, [r2, #4]
  3009dc:	e58d0010 	str	r0, [sp, #16]
  3009e0:	e0823003 	add	r3, r2, r3
  3009e4:	e7922181 	ldr	r2, [r2, r1, lsl #3]
  3009e8:	e58d2014 	str	r2, [sp, #20]
  3009ec:	e5933004 	ldr	r3, [r3, #4]
  3009f0:	e58d3018 	str	r3, [sp, #24]
  3009f4:	e1a0318e 	lsl	r3, lr, #3
  3009f8:	e08b0003 	add	r0, fp, r3
  3009fc:	e0801003 	add	r1, r0, r3
  300a00:	e0812003 	add	r2, r1, r3
  300a04:	e35e0000 	cmp	lr, #0
  300a08:	da0001fc 	ble	301200 <kf_work+0x109c>
  300a0c:	e28b8008 	add	r8, fp, #8
  300a10:	e2804008 	add	r4, r0, #8
  300a14:	e2817008 	add	r7, r1, #8
  300a18:	e2826008 	add	r6, r2, #8
  300a1c:	e2833008 	add	r3, r3, #8
  300a20:	e0825003 	add	r5, r2, r3
  300a24:	e1a0218c 	lsl	r2, ip, #3
  300a28:	e58d2068 	str	r2, [sp, #104]	; 0x68
  300a2c:	e1a0220c 	lsl	r2, ip, #4
  300a30:	e58d206c 	str	r2, [sp, #108]	; 0x6c
  300a34:	e08c308c 	add	r3, ip, ip, lsl #1
  300a38:	e1a03183 	lsl	r3, r3, #3
  300a3c:	e58d3070 	str	r3, [sp, #112]	; 0x70
  300a40:	e1a0328c 	lsl	r3, ip, #5
  300a44:	e58d3074 	str	r3, [sp, #116]	; 0x74
  300a48:	e3a03000 	mov	r3, #0
  300a4c:	e58d303c 	str	r3, [sp, #60]	; 0x3c
  300a50:	e58d3038 	str	r3, [sp, #56]	; 0x38
  300a54:	e58d3034 	str	r3, [sp, #52]	; 0x34
  300a58:	e58d3028 	str	r3, [sp, #40]	; 0x28
  300a5c:	e58d3064 	str	r3, [sp, #100]	; 0x64
  300a60:	e1a0b008 	mov	fp, r8
  300a64:	e1a0a004 	mov	sl, r4
  300a68:	e51b3008 	ldr	r3, [fp, #-8]
  300a6c:	e58d301c 	str	r3, [sp, #28]
  300a70:	e51b2004 	ldr	r2, [fp, #-4]
  300a74:	e58d2030 	str	r2, [sp, #48]	; 0x30
  300a78:	e51a1008 	ldr	r1, [sl, #-8]
  300a7c:	e59d3008 	ldr	r3, [sp, #8]
  300a80:	e59d0028 	ldr	r0, [sp, #40]	; 0x28
  300a84:	e7b38000 	ldr	r8, [r3, r0]!
  300a88:	e51a4004 	ldr	r4, [sl, #-4]
  300a8c:	e5939004 	ldr	r9, [r3, #4]
  300a90:	e58d1020 	str	r1, [sp, #32]
  300a94:	e1a00001 	mov	r0, r1
  300a98:	e1a01008 	mov	r1, r8
  300a9c:	eb00332e 	bl	30d75c <__aeabi_fmul>
  300aa0:	e58d0040 	str	r0, [sp, #64]	; 0x40
  300aa4:	e1a00004 	mov	r0, r4
  300aa8:	e1a01009 	mov	r1, r9
  300aac:	eb00332a 	bl	30d75c <__aeabi_fmul>
  300ab0:	e1a01000 	mov	r1, r0
  300ab4:	e59d0040 	ldr	r0, [sp, #64]	; 0x40
  300ab8:	eb00327e 	bl	30d4b8 <__aeabi_fsub>
  300abc:	e58d0040 	str	r0, [sp, #64]	; 0x40
  300ac0:	e59d0020 	ldr	r0, [sp, #32]
  300ac4:	e1a01009 	mov	r1, r9
  300ac8:	eb003323 	bl	30d75c <__aeabi_fmul>
  300acc:	e1a09000 	mov	r9, r0
  300ad0:	e1a00008 	mov	r0, r8
  300ad4:	e1a01004 	mov	r1, r4
  300ad8:	eb00331f 	bl	30d75c <__aeabi_fmul>
  300adc:	e1a01000 	mov	r1, r0
  300ae0:	e1a00009 	mov	r0, r9
  300ae4:	eb003274 	bl	30d4bc <__addsf3>
  300ae8:	e58d005c 	str	r0, [sp, #92]	; 0x5c
  300aec:	e5171008 	ldr	r1, [r7, #-8]
  300af0:	e59d3008 	ldr	r3, [sp, #8]
  300af4:	e59dc034 	ldr	ip, [sp, #52]	; 0x34
  300af8:	e7b3800c 	ldr	r8, [r3, ip]!
  300afc:	e5174004 	ldr	r4, [r7, #-4]
  300b00:	e5939004 	ldr	r9, [r3, #4]
  300b04:	e58d1020 	str	r1, [sp, #32]
  300b08:	e1a00001 	mov	r0, r1
  300b0c:	e1a01008 	mov	r1, r8
  300b10:	eb003311 	bl	30d75c <__aeabi_fmul>
  300b14:	e58d0044 	str	r0, [sp, #68]	; 0x44
  300b18:	e1a00004 	mov	r0, r4
  300b1c:	e1a01009 	mov	r1, r9
  300b20:	eb00330d 	bl	30d75c <__aeabi_fmul>
  300b24:	e1a01000 	mov	r1, r0
  300b28:	e59d0044 	ldr	r0, [sp, #68]	; 0x44
  300b2c:	eb003261 	bl	30d4b8 <__aeabi_fsub>
  300b30:	e58d0044 	str	r0, [sp, #68]	; 0x44
  300b34:	e59d0020 	ldr	r0, [sp, #32]
  300b38:	e1a01009 	mov	r1, r9
  300b3c:	eb003306 	bl	30d75c <__aeabi_fmul>
  300b40:	e1a09000 	mov	r9, r0
  300b44:	e1a00008 	mov	r0, r8
  300b48:	e1a01004 	mov	r1, r4
  300b4c:	eb003302 	bl	30d75c <__aeabi_fmul>
  300b50:	e1a01000 	mov	r1, r0
  300b54:	e1a00009 	mov	r0, r9
  300b58:	eb003257 	bl	30d4bc <__addsf3>
  300b5c:	e58d0048 	str	r0, [sp, #72]	; 0x48
  300b60:	e5161008 	ldr	r1, [r6, #-8]
  300b64:	e59d3008 	ldr	r3, [sp, #8]
  300b68:	e59de038 	ldr	lr, [sp, #56]	; 0x38
  300b6c:	e7b3800e 	ldr	r8, [r3, lr]!
  300b70:	e5164004 	ldr	r4, [r6, #-4]
  300b74:	e5939004 	ldr	r9, [r3, #4]
  300b78:	e58d1020 	str	r1, [sp, #32]
  300b7c:	e1a00001 	mov	r0, r1
  300b80:	e1a01008 	mov	r1, r8
  300b84:	eb0032f4 	bl	30d75c <__aeabi_fmul>
  300b88:	e58d0050 	str	r0, [sp, #80]	; 0x50
  300b8c:	e1a00004 	mov	r0, r4
  300b90:	e1a01009 	mov	r1, r9
  300b94:	eb0032f0 	bl	30d75c <__aeabi_fmul>
  300b98:	e1a01000 	mov	r1, r0
  300b9c:	e59d0050 	ldr	r0, [sp, #80]	; 0x50
  300ba0:	eb003244 	bl	30d4b8 <__aeabi_fsub>
  300ba4:	e58d0050 	str	r0, [sp, #80]	; 0x50
  300ba8:	e59d0020 	ldr	r0, [sp, #32]
  300bac:	e1a01009 	mov	r1, r9
  300bb0:	eb0032e9 	bl	30d75c <__aeabi_fmul>
  300bb4:	e1a09000 	mov	r9, r0
  300bb8:	e1a00008 	mov	r0, r8
  300bbc:	e1a01004 	mov	r1, r4
  300bc0:	eb0032e5 	bl	30d75c <__aeabi_fmul>
  300bc4:	e1a01000 	mov	r1, r0
  300bc8:	e1a00009 	mov	r0, r9
  300bcc:	eb00323a 	bl	30d4bc <__addsf3>
  300bd0:	e58d0054 	str	r0, [sp, #84]	; 0x54
  300bd4:	e5151008 	ldr	r1, [r5, #-8]
  300bd8:	e59d3008 	ldr	r3, [sp, #8]
  300bdc:	e59d803c 	ldr	r8, [sp, #60]	; 0x3c
  300be0:	e7b39008 	ldr	r9, [r3, r8]!
  300be4:	e5158004 	ldr	r8, [r5, #-4]
  300be8:	e5934004 	ldr	r4, [r3, #4]
  300bec:	e58d1020 	str	r1, [sp, #32]
  300bf0:	e1a00001 	mov	r0, r1
  300bf4:	e1a01009 	mov	r1, r9
  300bf8:	eb0032d7 	bl	30d75c <__aeabi_fmul>
  300bfc:	e58d0058 	str	r0, [sp, #88]	; 0x58
  300c00:	e1a00008 	mov	r0, r8
  300c04:	e1a01004 	mov	r1, r4
  300c08:	eb0032d3 	bl	30d75c <__aeabi_fmul>
  300c0c:	e1a01000 	mov	r1, r0
  300c10:	e59d0058 	ldr	r0, [sp, #88]	; 0x58
  300c14:	eb003227 	bl	30d4b8 <__aeabi_fsub>
  300c18:	e58d0058 	str	r0, [sp, #88]	; 0x58
  300c1c:	e59d0020 	ldr	r0, [sp, #32]
  300c20:	e1a01004 	mov	r1, r4
  300c24:	eb0032cc 	bl	30d75c <__aeabi_fmul>
  300c28:	e1a04000 	mov	r4, r0
  300c2c:	e1a00009 	mov	r0, r9
  300c30:	e1a01008 	mov	r1, r8
  300c34:	eb0032c8 	bl	30d75c <__aeabi_fmul>
  300c38:	e1a01000 	mov	r1, r0
  300c3c:	e1a00004 	mov	r0, r4
  300c40:	eb00321d 	bl	30d4bc <__addsf3>
  300c44:	e1a08000 	mov	r8, r0
  300c48:	e59d0040 	ldr	r0, [sp, #64]	; 0x40
  300c4c:	e59d1058 	ldr	r1, [sp, #88]	; 0x58
  300c50:	eb003219 	bl	30d4bc <__addsf3>
  300c54:	e58d0020 	str	r0, [sp, #32]
  300c58:	e59d405c 	ldr	r4, [sp, #92]	; 0x5c
  300c5c:	e1a00004 	mov	r0, r4
  300c60:	e1a01008 	mov	r1, r8
  300c64:	eb003214 	bl	30d4bc <__addsf3>
  300c68:	e1a09000 	mov	r9, r0
  300c6c:	e59d0040 	ldr	r0, [sp, #64]	; 0x40
  300c70:	e59d1058 	ldr	r1, [sp, #88]	; 0x58
  300c74:	eb00320f 	bl	30d4b8 <__aeabi_fsub>
  300c78:	e58d0040 	str	r0, [sp, #64]	; 0x40
  300c7c:	e1a00004 	mov	r0, r4
  300c80:	e1a01008 	mov	r1, r8
  300c84:	eb00320b 	bl	30d4b8 <__aeabi_fsub>
  300c88:	e58d0058 	str	r0, [sp, #88]	; 0x58
  300c8c:	e59d0044 	ldr	r0, [sp, #68]	; 0x44
  300c90:	e59d1050 	ldr	r1, [sp, #80]	; 0x50
  300c94:	eb003208 	bl	30d4bc <__addsf3>
  300c98:	e1a04000 	mov	r4, r0
  300c9c:	e59d0048 	ldr	r0, [sp, #72]	; 0x48
  300ca0:	e59d1054 	ldr	r1, [sp, #84]	; 0x54
  300ca4:	eb003204 	bl	30d4bc <__addsf3>
  300ca8:	e1a08000 	mov	r8, r0
  300cac:	e59d0044 	ldr	r0, [sp, #68]	; 0x44
  300cb0:	e59d1050 	ldr	r1, [sp, #80]	; 0x50
  300cb4:	eb0031ff 	bl	30d4b8 <__aeabi_fsub>
  300cb8:	e58d0050 	str	r0, [sp, #80]	; 0x50
  300cbc:	e59d0048 	ldr	r0, [sp, #72]	; 0x48
  300cc0:	e59d1054 	ldr	r1, [sp, #84]	; 0x54
  300cc4:	eb0031fb 	bl	30d4b8 <__aeabi_fsub>
  300cc8:	e58d0048 	str	r0, [sp, #72]	; 0x48
  300ccc:	e59d0020 	ldr	r0, [sp, #32]
  300cd0:	e58d4044 	str	r4, [sp, #68]	; 0x44
  300cd4:	e1a01004 	mov	r1, r4
  300cd8:	eb0031f7 	bl	30d4bc <__addsf3>
  300cdc:	e1a01000 	mov	r1, r0
  300ce0:	e59d401c 	ldr	r4, [sp, #28]
  300ce4:	e1a00004 	mov	r0, r4
  300ce8:	eb0031f3 	bl	30d4bc <__addsf3>
  300cec:	e50b0008 	str	r0, [fp, #-8]
  300cf0:	e1a00009 	mov	r0, r9
  300cf4:	e1a01008 	mov	r1, r8
  300cf8:	eb0031ef 	bl	30d4bc <__addsf3>
  300cfc:	e1a01000 	mov	r1, r0
  300d00:	e59d0030 	ldr	r0, [sp, #48]	; 0x30
  300d04:	eb0031ec 	bl	30d4bc <__addsf3>
  300d08:	e50b0004 	str	r0, [fp, #-4]
  300d0c:	e59d000c 	ldr	r0, [sp, #12]
  300d10:	e59d1020 	ldr	r1, [sp, #32]
  300d14:	eb003290 	bl	30d75c <__aeabi_fmul>
  300d18:	e1a01000 	mov	r1, r0
  300d1c:	e58d401c 	str	r4, [sp, #28]
  300d20:	e1a00004 	mov	r0, r4
  300d24:	eb0031e4 	bl	30d4bc <__addsf3>
  300d28:	e1a04000 	mov	r4, r0
  300d2c:	e59d0014 	ldr	r0, [sp, #20]
  300d30:	e59d1044 	ldr	r1, [sp, #68]	; 0x44
  300d34:	eb003288 	bl	30d75c <__aeabi_fmul>
  300d38:	e1a01000 	mov	r1, r0
  300d3c:	e1a00004 	mov	r0, r4
  300d40:	eb0031dd 	bl	30d4bc <__addsf3>
  300d44:	e58d0054 	str	r0, [sp, #84]	; 0x54
  300d48:	e59d000c 	ldr	r0, [sp, #12]
  300d4c:	e1a01009 	mov	r1, r9
  300d50:	eb003281 	bl	30d75c <__aeabi_fmul>
  300d54:	e1a01000 	mov	r1, r0
  300d58:	e59d0030 	ldr	r0, [sp, #48]	; 0x30
  300d5c:	eb0031d6 	bl	30d4bc <__addsf3>
  300d60:	e1a04000 	mov	r4, r0
  300d64:	e59d0014 	ldr	r0, [sp, #20]
  300d68:	e1a01008 	mov	r1, r8
  300d6c:	eb00327a 	bl	30d75c <__aeabi_fmul>
  300d70:	e1a01000 	mov	r1, r0
  300d74:	e1a00004 	mov	r0, r4
  300d78:	eb0031cf 	bl	30d4bc <__addsf3>
  300d7c:	e58d005c 	str	r0, [sp, #92]	; 0x5c
  300d80:	e59d0010 	ldr	r0, [sp, #16]
  300d84:	e59d1058 	ldr	r1, [sp, #88]	; 0x58
  300d88:	eb003273 	bl	30d75c <__aeabi_fmul>
  300d8c:	e1a04000 	mov	r4, r0
  300d90:	e59d0018 	ldr	r0, [sp, #24]
  300d94:	e59d1048 	ldr	r1, [sp, #72]	; 0x48
  300d98:	eb00326f 	bl	30d75c <__aeabi_fmul>
  300d9c:	e1a01000 	mov	r1, r0
  300da0:	e1a00004 	mov	r0, r4
  300da4:	eb0031c4 	bl	30d4bc <__addsf3>
  300da8:	e58d0060 	str	r0, [sp, #96]	; 0x60
  300dac:	e59d0010 	ldr	r0, [sp, #16]
  300db0:	e59d1040 	ldr	r1, [sp, #64]	; 0x40
  300db4:	eb003268 	bl	30d75c <__aeabi_fmul>
  300db8:	e2804102 	add	r4, r0, #-2147483648	; 0x80000000
  300dbc:	e59d0018 	ldr	r0, [sp, #24]
  300dc0:	e59d1050 	ldr	r1, [sp, #80]	; 0x50
  300dc4:	eb003264 	bl	30d75c <__aeabi_fmul>
  300dc8:	e1a01000 	mov	r1, r0
  300dcc:	e1a00004 	mov	r0, r4
  300dd0:	eb0031b8 	bl	30d4b8 <__aeabi_fsub>
  300dd4:	e1a04000 	mov	r4, r0
  300dd8:	e59d0054 	ldr	r0, [sp, #84]	; 0x54
  300ddc:	e59d1060 	ldr	r1, [sp, #96]	; 0x60
  300de0:	eb0031b4 	bl	30d4b8 <__aeabi_fsub>
  300de4:	e50a0008 	str	r0, [sl, #-8]
  300de8:	e59d005c 	ldr	r0, [sp, #92]	; 0x5c
  300dec:	e1a01004 	mov	r1, r4
  300df0:	eb0031b0 	bl	30d4b8 <__aeabi_fsub>
  300df4:	e50a0004 	str	r0, [sl, #-4]
  300df8:	e59d0054 	ldr	r0, [sp, #84]	; 0x54
  300dfc:	e59d1060 	ldr	r1, [sp, #96]	; 0x60
  300e00:	eb0031ad 	bl	30d4bc <__addsf3>
  300e04:	e5050008 	str	r0, [r5, #-8]
  300e08:	e59d005c 	ldr	r0, [sp, #92]	; 0x5c
  300e0c:	e1a01004 	mov	r1, r4
  300e10:	eb0031a9 	bl	30d4bc <__addsf3>
  300e14:	e5050004 	str	r0, [r5, #-4]
  300e18:	e59d0014 	ldr	r0, [sp, #20]
  300e1c:	e59d1020 	ldr	r1, [sp, #32]
  300e20:	eb00324d 	bl	30d75c <__aeabi_fmul>
  300e24:	e1a01000 	mov	r1, r0
  300e28:	e59d001c 	ldr	r0, [sp, #28]
  300e2c:	eb0031a2 	bl	30d4bc <__addsf3>
  300e30:	e1a04000 	mov	r4, r0
  300e34:	e59d000c 	ldr	r0, [sp, #12]
  300e38:	e59d1044 	ldr	r1, [sp, #68]	; 0x44
  300e3c:	eb003246 	bl	30d75c <__aeabi_fmul>
  300e40:	e1a01000 	mov	r1, r0
  300e44:	e1a00004 	mov	r0, r4
  300e48:	eb00319b 	bl	30d4bc <__addsf3>
  300e4c:	e58d001c 	str	r0, [sp, #28]
  300e50:	e59d0014 	ldr	r0, [sp, #20]
  300e54:	e1a01009 	mov	r1, r9
  300e58:	eb00323f 	bl	30d75c <__aeabi_fmul>
  300e5c:	e1a01000 	mov	r1, r0
  300e60:	e59d0030 	ldr	r0, [sp, #48]	; 0x30
  300e64:	eb003194 	bl	30d4bc <__addsf3>
  300e68:	e1a04000 	mov	r4, r0
  300e6c:	e59d000c 	ldr	r0, [sp, #12]
  300e70:	e1a01008 	mov	r1, r8
  300e74:	eb003238 	bl	30d75c <__aeabi_fmul>
  300e78:	e1a01000 	mov	r1, r0
  300e7c:	e1a00004 	mov	r0, r4
  300e80:	eb00318d 	bl	30d4bc <__addsf3>
  300e84:	e1a08000 	mov	r8, r0
  300e88:	e59d0010 	ldr	r0, [sp, #16]
  300e8c:	e59d1048 	ldr	r1, [sp, #72]	; 0x48
  300e90:	eb003231 	bl	30d75c <__aeabi_fmul>
  300e94:	e1a04000 	mov	r4, r0
  300e98:	e59d0018 	ldr	r0, [sp, #24]
  300e9c:	e59d1058 	ldr	r1, [sp, #88]	; 0x58
  300ea0:	eb00322d 	bl	30d75c <__aeabi_fmul>
  300ea4:	e1a01000 	mov	r1, r0
  300ea8:	e1a00004 	mov	r0, r4
  300eac:	eb003181 	bl	30d4b8 <__aeabi_fsub>
  300eb0:	e1a09000 	mov	r9, r0
  300eb4:	e59d0018 	ldr	r0, [sp, #24]
  300eb8:	e59d1040 	ldr	r1, [sp, #64]	; 0x40
  300ebc:	eb003226 	bl	30d75c <__aeabi_fmul>
  300ec0:	e1a04000 	mov	r4, r0
  300ec4:	e59d0010 	ldr	r0, [sp, #16]
  300ec8:	e59d1050 	ldr	r1, [sp, #80]	; 0x50
  300ecc:	eb003222 	bl	30d75c <__aeabi_fmul>
  300ed0:	e1a01000 	mov	r1, r0
  300ed4:	e1a00004 	mov	r0, r4
  300ed8:	eb003176 	bl	30d4b8 <__aeabi_fsub>
  300edc:	e1a04000 	mov	r4, r0
  300ee0:	e59d001c 	ldr	r0, [sp, #28]
  300ee4:	e1a01009 	mov	r1, r9
  300ee8:	eb003173 	bl	30d4bc <__addsf3>
  300eec:	e5070008 	str	r0, [r7, #-8]
  300ef0:	e1a00008 	mov	r0, r8
  300ef4:	e1a01004 	mov	r1, r4
  300ef8:	eb00316f 	bl	30d4bc <__addsf3>
  300efc:	e5070004 	str	r0, [r7, #-4]
  300f00:	e59d001c 	ldr	r0, [sp, #28]
  300f04:	e1a01009 	mov	r1, r9
  300f08:	eb00316a 	bl	30d4b8 <__aeabi_fsub>
  300f0c:	e5060008 	str	r0, [r6, #-8]
  300f10:	e1a00008 	mov	r0, r8
  300f14:	e1a01004 	mov	r1, r4
  300f18:	eb003166 	bl	30d4b8 <__aeabi_fsub>
  300f1c:	e5060004 	str	r0, [r6, #-4]
  300f20:	e59d3064 	ldr	r3, [sp, #100]	; 0x64
  300f24:	e2833001 	add	r3, r3, #1
  300f28:	e58d3064 	str	r3, [sp, #100]	; 0x64
  300f2c:	e28bb008 	add	fp, fp, #8
  300f30:	e28aa008 	add	sl, sl, #8
  300f34:	e2877008 	add	r7, r7, #8
  300f38:	e2866008 	add	r6, r6, #8
  300f3c:	e2855008 	add	r5, r5, #8
  300f40:	e59d0028 	ldr	r0, [sp, #40]	; 0x28
  300f44:	e59d2068 	ldr	r2, [sp, #104]	; 0x68
  300f48:	e0802002 	add	r2, r0, r2
  300f4c:	e58d2028 	str	r2, [sp, #40]	; 0x28
  300f50:	e59dc034 	ldr	ip, [sp, #52]	; 0x34
  300f54:	e59d206c 	ldr	r2, [sp, #108]	; 0x6c
  300f58:	e08c2002 	add	r2, ip, r2
  300f5c:	e58d2034 	str	r2, [sp, #52]	; 0x34
  300f60:	e59de038 	ldr	lr, [sp, #56]	; 0x38
  300f64:	e59d2070 	ldr	r2, [sp, #112]	; 0x70
  300f68:	e08e2002 	add	r2, lr, r2
  300f6c:	e58d2038 	str	r2, [sp, #56]	; 0x38
  300f70:	e59d803c 	ldr	r8, [sp, #60]	; 0x3c
  300f74:	e59d2074 	ldr	r2, [sp, #116]	; 0x74
  300f78:	e0882002 	add	r2, r8, r2
  300f7c:	e58d203c 	str	r2, [sp, #60]	; 0x3c
  300f80:	e59d204c 	ldr	r2, [sp, #76]	; 0x4c
  300f84:	e1530002 	cmp	r3, r2
  300f88:	1afffeb6 	bne	300a68 <kf_work+0x904>
  300f8c:	ea00009b 	b	301200 <kf_work+0x109c>
  300f90:	e2897f42 	add	r7, r9, #264	; 0x108
  300f94:	e5996000 	ldr	r6, [r9]
  300f98:	e59d3030 	ldr	r3, [sp, #48]	; 0x30
  300f9c:	e1a00183 	lsl	r0, r3, #3
  300fa0:	eb000b44 	bl	303cb8 <malloc>
  300fa4:	e58d0028 	str	r0, [sp, #40]	; 0x28
  300fa8:	e59d304c 	ldr	r3, [sp, #76]	; 0x4c
  300fac:	e3530000 	cmp	r3, #0
  300fb0:	ca000067 	bgt	301154 <kf_work+0xff0>
  300fb4:	ea00007e 	b	3011b4 <kf_work+0x1050>
  300fb8:	e59d2048 	ldr	r2, [sp, #72]	; 0x48
  300fbc:	e3a03000 	mov	r3, #0
  300fc0:	e59de030 	ldr	lr, [sp, #48]	; 0x30
  300fc4:	e59d4028 	ldr	r4, [sp, #40]	; 0x28
  300fc8:	e59d5034 	ldr	r5, [sp, #52]	; 0x34
  300fcc:	e084c183 	add	ip, r4, r3, lsl #3
  300fd0:	e8920003 	ldm	r2, {r0, r1}
  300fd4:	e88c0003 	stm	ip, {r0, r1}
  300fd8:	e2833001 	add	r3, r3, #1
  300fdc:	e0822005 	add	r2, r2, r5
  300fe0:	e153000e 	cmp	r3, lr
  300fe4:	1afffff8 	bne	300fcc <kf_work+0xe68>
  300fe8:	e59d3048 	ldr	r3, [sp, #72]	; 0x48
  300fec:	e2837004 	add	r7, r3, #4
  300ff0:	e59d2050 	ldr	r2, [sp, #80]	; 0x50
  300ff4:	e58d2014 	str	r2, [sp, #20]
  300ff8:	e58d301c 	str	r3, [sp, #28]
  300ffc:	e3a03000 	mov	r3, #0
  301000:	e58d3020 	str	r3, [sp, #32]
  301004:	e59d301c 	ldr	r3, [sp, #28]
  301008:	e1a0a003 	mov	sl, r3
  30100c:	e59d2028 	ldr	r2, [sp, #40]	; 0x28
  301010:	e8920003 	ldm	r2, {r0, r1}
  301014:	e8830003 	stm	r3, {r0, r1}
  301018:	e59d3030 	ldr	r3, [sp, #48]	; 0x30
  30101c:	e3530001 	cmp	r3, #1
  301020:	da00002d 	ble	3010dc <kf_work+0xf78>
  301024:	e59d5040 	ldr	r5, [sp, #64]	; 0x40
  301028:	e59d4044 	ldr	r4, [sp, #68]	; 0x44
  30102c:	e1a0800a 	mov	r8, sl
  301030:	e59d3014 	ldr	r3, [sp, #20]
  301034:	e0844003 	add	r4, r4, r3
  301038:	e1540006 	cmp	r4, r6
  30103c:	a0664004 	rsbge	r4, r6, r4
  301040:	e595a008 	ldr	sl, [r5, #8]
  301044:	e08b3184 	add	r3, fp, r4, lsl #3
  301048:	e79b2184 	ldr	r2, [fp, r4, lsl #3]
  30104c:	e595100c 	ldr	r1, [r5, #12]
  301050:	e58d1008 	str	r1, [sp, #8]
  301054:	e5939004 	ldr	r9, [r3, #4]
  301058:	e1a0000a 	mov	r0, sl
  30105c:	e58d200c 	str	r2, [sp, #12]
  301060:	e1a01002 	mov	r1, r2
  301064:	eb0031bc 	bl	30d75c <__aeabi_fmul>
  301068:	e58d0010 	str	r0, [sp, #16]
  30106c:	e59d0008 	ldr	r0, [sp, #8]
  301070:	e1a01009 	mov	r1, r9
  301074:	eb0031b8 	bl	30d75c <__aeabi_fmul>
  301078:	e1a01000 	mov	r1, r0
  30107c:	e59d0010 	ldr	r0, [sp, #16]
  301080:	eb00310c 	bl	30d4b8 <__aeabi_fsub>
  301084:	e1a01000 	mov	r1, r0
  301088:	e5170004 	ldr	r0, [r7, #-4]
  30108c:	eb00310a 	bl	30d4bc <__addsf3>
  301090:	e5070004 	str	r0, [r7, #-4]
  301094:	e1a0000a 	mov	r0, sl
  301098:	e1a01009 	mov	r1, r9
  30109c:	eb0031ae 	bl	30d75c <__aeabi_fmul>
  3010a0:	e1a09000 	mov	r9, r0
  3010a4:	e59d000c 	ldr	r0, [sp, #12]
  3010a8:	e59d1008 	ldr	r1, [sp, #8]
  3010ac:	eb0031aa 	bl	30d75c <__aeabi_fmul>
  3010b0:	e1a01000 	mov	r1, r0
  3010b4:	e1a00009 	mov	r0, r9
  3010b8:	eb0030ff 	bl	30d4bc <__addsf3>
  3010bc:	e1a01000 	mov	r1, r0
  3010c0:	e5980004 	ldr	r0, [r8, #4]
  3010c4:	eb0030fc 	bl	30d4bc <__addsf3>
  3010c8:	e5880004 	str	r0, [r8, #4]
  3010cc:	e2855008 	add	r5, r5, #8
  3010d0:	e59d3018 	ldr	r3, [sp, #24]
  3010d4:	e1550003 	cmp	r5, r3
  3010d8:	1affffd4 	bne	301030 <kf_work+0xecc>
  3010dc:	e59d3020 	ldr	r3, [sp, #32]
  3010e0:	e2833001 	add	r3, r3, #1
  3010e4:	e58d3020 	str	r3, [sp, #32]
  3010e8:	e59d201c 	ldr	r2, [sp, #28]
  3010ec:	e59d1034 	ldr	r1, [sp, #52]	; 0x34
  3010f0:	e0822001 	add	r2, r2, r1
  3010f4:	e58d201c 	str	r2, [sp, #28]
  3010f8:	e59d203c 	ldr	r2, [sp, #60]	; 0x3c
  3010fc:	e0877002 	add	r7, r7, r2
  301100:	e59d2014 	ldr	r2, [sp, #20]
  301104:	e59d1038 	ldr	r1, [sp, #56]	; 0x38
  301108:	e0822001 	add	r2, r2, r1
  30110c:	e58d2014 	str	r2, [sp, #20]
  301110:	e59d2030 	ldr	r2, [sp, #48]	; 0x30
  301114:	e1530002 	cmp	r3, r2
  301118:	1affffb9 	bne	301004 <kf_work+0xea0>
  30111c:	e59d3058 	ldr	r3, [sp, #88]	; 0x58
  301120:	e2833001 	add	r3, r3, #1
  301124:	e58d3058 	str	r3, [sp, #88]	; 0x58
  301128:	e59d2048 	ldr	r2, [sp, #72]	; 0x48
  30112c:	e2822008 	add	r2, r2, #8
  301130:	e58d2048 	str	r2, [sp, #72]	; 0x48
  301134:	e59d2050 	ldr	r2, [sp, #80]	; 0x50
  301138:	e59d1054 	ldr	r1, [sp, #84]	; 0x54
  30113c:	e0822001 	add	r2, r2, r1
  301140:	e58d2050 	str	r2, [sp, #80]	; 0x50
  301144:	e59d204c 	ldr	r2, [sp, #76]	; 0x4c
  301148:	e1520003 	cmp	r2, r3
  30114c:	ca000014 	bgt	3011a4 <kf_work+0x1040>
  301150:	ea000017 	b	3011b4 <kf_work+0x1050>
  301154:	e58db048 	str	fp, [sp, #72]	; 0x48
  301158:	e59d204c 	ldr	r2, [sp, #76]	; 0x4c
  30115c:	e1a03182 	lsl	r3, r2, #3
  301160:	e58d3034 	str	r3, [sp, #52]	; 0x34
  301164:	e58d303c 	str	r3, [sp, #60]	; 0x3c
  301168:	e1a03002 	mov	r3, r2
  30116c:	e59d2054 	ldr	r2, [sp, #84]	; 0x54
  301170:	e0030293 	mul	r3, r3, r2
  301174:	e58d3038 	str	r3, [sp, #56]	; 0x38
  301178:	e59d3030 	ldr	r3, [sp, #48]	; 0x30
  30117c:	e243321e 	sub	r3, r3, #-536870911	; 0xe0000001
  301180:	e59d2028 	ldr	r2, [sp, #40]	; 0x28
  301184:	e0823183 	add	r3, r2, r3, lsl #3
  301188:	e58d3018 	str	r3, [sp, #24]
  30118c:	e3a03000 	mov	r3, #0
  301190:	e58d3050 	str	r3, [sp, #80]	; 0x50
  301194:	e58d3058 	str	r3, [sp, #88]	; 0x58
  301198:	e58d2040 	str	r2, [sp, #64]	; 0x40
  30119c:	e58d3044 	str	r3, [sp, #68]	; 0x44
  3011a0:	e1a0b007 	mov	fp, r7
  3011a4:	e59d3030 	ldr	r3, [sp, #48]	; 0x30
  3011a8:	e3530000 	cmp	r3, #0
  3011ac:	caffff81 	bgt	300fb8 <kf_work+0xe54>
  3011b0:	eaffffd9 	b	30111c <kf_work+0xfb8>
  3011b4:	e59d0028 	ldr	r0, [sp, #40]	; 0x28
  3011b8:	eb000ac6 	bl	303cd8 <free>
  3011bc:	ea00000f 	b	301200 <kf_work+0x109c>
  3011c0:	e2897f42 	add	r7, r9, #264	; 0x108
  3011c4:	e5996000 	ldr	r6, [r9]
  3011c8:	e59d3030 	ldr	r3, [sp, #48]	; 0x30
  3011cc:	e1a00183 	lsl	r0, r3, #3
  3011d0:	eb000ab8 	bl	303cb8 <malloc>
  3011d4:	e58d0028 	str	r0, [sp, #40]	; 0x28
  3011d8:	eaffffdd 	b	301154 <kf_work+0xff0>
  3011dc:	e59d3030 	ldr	r3, [sp, #48]	; 0x30
  3011e0:	e2433002 	sub	r3, r3, #2
  3011e4:	e3530003 	cmp	r3, #3
  3011e8:	979ff103 	ldrls	pc, [pc, r3, lsl #2]
  3011ec:	eafffff3 	b	3011c0 <kf_work+0x105c>
  3011f0:	00300254 	eorseq	r0, r0, r4, asr r2
  3011f4:	00300340 	eorseq	r0, r0, r0, asr #6
  3011f8:	003005e8 	eorseq	r0, r0, r8, ror #11
  3011fc:	003009b0 	ldrhteq	r0, [r0], -r0
  301200:	e28dd07c 	add	sp, sp, #124	; 0x7c
  301204:	e8bd8ff0 	pop	{r4, r5, r6, r7, r8, r9, sl, fp, pc}

00301208 <kiss_fft_alloc>:
  301208:	e92d4ff8 	push	{r3, r4, r5, r6, r7, r8, r9, sl, fp, lr}
  30120c:	e1a04000 	mov	r4, r0
  301210:	e1a06001 	mov	r6, r1
  301214:	e2800021 	add	r0, r0, #33	; 0x21
  301218:	e1a00180 	lsl	r0, r0, #3
  30121c:	e3530000 	cmp	r3, #0
  301220:	1a000002 	bne	301230 <kiss_fft_alloc+0x28>
  301224:	eb000aa3 	bl	303cb8 <malloc>
  301228:	e1a05000 	mov	r5, r0
  30122c:	ea000006 	b	30124c <kiss_fft_alloc+0x44>
  301230:	e1a05002 	mov	r5, r2
  301234:	e3520000 	cmp	r2, #0
  301238:	0a000002 	beq	301248 <kiss_fft_alloc+0x40>
  30123c:	e5932000 	ldr	r2, [r3]
  301240:	e1500002 	cmp	r0, r2
  301244:	83a05000 	movhi	r5, #0
  301248:	e5830000 	str	r0, [r3]
  30124c:	e3550000 	cmp	r5, #0
  301250:	0a000057 	beq	3013b4 <kiss_fft_alloc+0x1ac>
  301254:	e5854000 	str	r4, [r5]
  301258:	e5856004 	str	r6, [r5, #4]
  30125c:	e3540000 	cmp	r4, #0
  301260:	da000026 	ble	301300 <kiss_fft_alloc+0xf8>
  301264:	e1a0b005 	mov	fp, r5
  301268:	e3a0a000 	mov	sl, #0
  30126c:	e3028d18 	movw	r8, #11544	; 0x2d18
  301270:	e3458444 	movt	r8, #21572	; 0x5444
  301274:	e30291fb 	movw	r9, #8699	; 0x21fb
  301278:	e34c9019 	movt	r9, #49177	; 0xc019
  30127c:	e1a0000a 	mov	r0, sl
  301280:	eb002e9c 	bl	30ccf8 <__aeabi_i2d>
  301284:	e1a02008 	mov	r2, r8
  301288:	e1a03009 	mov	r3, r9
  30128c:	eb002ed0 	bl	30cdd4 <__aeabi_dmul>
  301290:	e1a06000 	mov	r6, r0
  301294:	e1a07001 	mov	r7, r1
  301298:	e1a00004 	mov	r0, r4
  30129c:	eb002e95 	bl	30ccf8 <__aeabi_i2d>
  3012a0:	e1a02000 	mov	r2, r0
  3012a4:	e1a03001 	mov	r3, r1
  3012a8:	e1a00006 	mov	r0, r6
  3012ac:	e1a01007 	mov	r1, r7
  3012b0:	eb002f6b 	bl	30d064 <__aeabi_ddiv>
  3012b4:	e1a07000 	mov	r7, r0
  3012b8:	e1a06001 	mov	r6, r1
  3012bc:	e5953004 	ldr	r3, [r5, #4]
  3012c0:	e3530000 	cmp	r3, #0
  3012c4:	12816102 	addne	r6, r1, #-2147483648	; 0x80000000
  3012c8:	e1a00007 	mov	r0, r7
  3012cc:	e1a01006 	mov	r1, r6
  3012d0:	eb00022d 	bl	301b8c <cos>
  3012d4:	eb00304d 	bl	30d410 <__aeabi_d2f>
  3012d8:	e58b0108 	str	r0, [fp, #264]	; 0x108
  3012dc:	e1a00007 	mov	r0, r7
  3012e0:	e1a01006 	mov	r1, r6
  3012e4:	eb0002cf 	bl	301e28 <sin>
  3012e8:	eb003048 	bl	30d410 <__aeabi_d2f>
  3012ec:	e58b010c 	str	r0, [fp, #268]	; 0x10c
  3012f0:	e28aa001 	add	sl, sl, #1
  3012f4:	e28bb008 	add	fp, fp, #8
  3012f8:	e15a0004 	cmp	sl, r4
  3012fc:	1affffde 	bne	30127c <kiss_fft_alloc+0x74>
  301300:	e2859008 	add	r9, r5, #8
  301304:	e1a00004 	mov	r0, r4
  301308:	eb002e7a 	bl	30ccf8 <__aeabi_i2d>
  30130c:	eb000305 	bl	301f28 <sqrt>
  301310:	eb00025c 	bl	301c88 <floor>
  301314:	e1a06000 	mov	r6, r0
  301318:	e1a07001 	mov	r7, r1
  30131c:	e3a08004 	mov	r8, #4
  301320:	e3a0b003 	mov	fp, #3
  301324:	e3a0a002 	mov	sl, #2
  301328:	ea000013 	b	30137c <kiss_fft_alloc+0x174>
  30132c:	e3580002 	cmp	r8, #2
  301330:	01a0800b 	moveq	r8, fp
  301334:	0a000005 	beq	301350 <kiss_fft_alloc+0x148>
  301338:	e3580004 	cmp	r8, #4
  30133c:	01a0800a 	moveq	r8, sl
  301340:	0a000002 	beq	301350 <kiss_fft_alloc+0x148>
  301344:	eaffffff 	b	301348 <kiss_fft_alloc+0x140>
  301348:	e2888002 	add	r8, r8, #2
  30134c:	eaffffff 	b	301350 <kiss_fft_alloc+0x148>
  301350:	e1a00008 	mov	r0, r8
  301354:	eb002e67 	bl	30ccf8 <__aeabi_i2d>
  301358:	e1a02000 	mov	r2, r0
  30135c:	e1a03001 	mov	r3, r1
  301360:	e1a00006 	mov	r0, r6
  301364:	e1a01007 	mov	r1, r7
  301368:	eb002ff9 	bl	30d354 <__aeabi_dcmplt>
  30136c:	e3500000 	cmp	r0, #0
  301370:	11a08004 	movne	r8, r4
  301374:	ea000000 	b	30137c <kiss_fft_alloc+0x174>
  301378:	e1a09003 	mov	r9, r3
  30137c:	e1a00004 	mov	r0, r4
  301380:	e1a01008 	mov	r1, r8
  301384:	eb002d82 	bl	30c994 <__aeabi_idivmod>
  301388:	e3510000 	cmp	r1, #0
  30138c:	1affffe6 	bne	30132c <kiss_fft_alloc+0x124>
  301390:	e1a00004 	mov	r0, r4
  301394:	e1a01008 	mov	r1, r8
  301398:	eb002d33 	bl	30c86c <__aeabi_idiv>
  30139c:	e1a04000 	mov	r4, r0
  3013a0:	e1a03009 	mov	r3, r9
  3013a4:	e4838008 	str	r8, [r3], #8
  3013a8:	e5890004 	str	r0, [r9, #4]
  3013ac:	e3500001 	cmp	r0, #1
  3013b0:	cafffff0 	bgt	301378 <kiss_fft_alloc+0x170>
  3013b4:	e1a00005 	mov	r0, r5
  3013b8:	e8bd8ff8 	pop	{r3, r4, r5, r6, r7, r8, r9, sl, fp, pc}

003013bc <kiss_fft_stride>:
  3013bc:	e92d41f0 	push	{r4, r5, r6, r7, r8, lr}
  3013c0:	e24dd008 	sub	sp, sp, #8
  3013c4:	e1a05000 	mov	r5, r0
  3013c8:	e1a04001 	mov	r4, r1
  3013cc:	e1a06003 	mov	r6, r3
  3013d0:	e1510002 	cmp	r1, r2
  3013d4:	1a000012 	bne	301424 <kiss_fft_stride+0x68>
  3013d8:	e1a07000 	mov	r7, r0
  3013dc:	e4970008 	ldr	r0, [r7], #8
  3013e0:	e1a00180 	lsl	r0, r0, #3
  3013e4:	eb000a33 	bl	303cb8 <malloc>
  3013e8:	e1a08000 	mov	r8, r0
  3013ec:	e58d7000 	str	r7, [sp]
  3013f0:	e58d5004 	str	r5, [sp, #4]
  3013f4:	e1a01004 	mov	r1, r4
  3013f8:	e3a02001 	mov	r2, #1
  3013fc:	e1a03006 	mov	r3, r6
  301400:	ebfffb57 	bl	300164 <kf_work>
  301404:	e5952000 	ldr	r2, [r5]
  301408:	e1a00004 	mov	r0, r4
  30140c:	e1a01008 	mov	r1, r8
  301410:	e1a02182 	lsl	r2, r2, #3
  301414:	eb000c04 	bl	30442c <memcpy>
  301418:	e1a00008 	mov	r0, r8
  30141c:	eb000a2d 	bl	303cd8 <free>
  301420:	ea000006 	b	301440 <kiss_fft_stride+0x84>
  301424:	e2803008 	add	r3, r0, #8
  301428:	e58d3000 	str	r3, [sp]
  30142c:	e58d0004 	str	r0, [sp, #4]
  301430:	e1a00002 	mov	r0, r2
  301434:	e3a02001 	mov	r2, #1
  301438:	e1a03006 	mov	r3, r6
  30143c:	ebfffb48 	bl	300164 <kf_work>
  301440:	e28dd008 	add	sp, sp, #8
  301444:	e8bd81f0 	pop	{r4, r5, r6, r7, r8, pc}

00301448 <kiss_fft>:
  301448:	e92d4008 	push	{r3, lr}
  30144c:	e3a03001 	mov	r3, #1
  301450:	ebffffd9 	bl	3013bc <kiss_fft_stride>
  301454:	e8bd8008 	pop	{r3, pc}

00301458 <kiss_fft_cleanup>:
  301458:	e12fff1e 	bx	lr

0030145c <kiss_fft_next_fast_size>:
  30145c:	e92d0030 	push	{r4, r5}
  301460:	e305c556 	movw	ip, #21846	; 0x5556
  301464:	e345c555 	movt	ip, #21845	; 0x5555
  301468:	e3061667 	movw	r1, #26215	; 0x6667
  30146c:	e3461666 	movt	r1, #26214	; 0x6666
  301470:	e3100001 	tst	r0, #1
  301474:	1a000005 	bne	301490 <kiss_fft_next_fast_size+0x34>
  301478:	e1a03000 	mov	r3, r0
  30147c:	e0833fa3 	add	r3, r3, r3, lsr #31
  301480:	e1a030c3 	asr	r3, r3, #1
  301484:	e3130001 	tst	r3, #1
  301488:	0afffffb 	beq	30147c <kiss_fft_next_fast_size+0x20>
  30148c:	ea000000 	b	301494 <kiss_fft_next_fast_size+0x38>
  301490:	e1a03000 	mov	r3, r0
  301494:	e0c54c93 	smull	r4, r5, r3, ip
  301498:	e0452fc3 	sub	r2, r5, r3, asr #31
  30149c:	e0822082 	add	r2, r2, r2, lsl #1
  3014a0:	e1530002 	cmp	r3, r2
  3014a4:	1a000006 	bne	3014c4 <kiss_fft_next_fast_size+0x68>
  3014a8:	e0c54c93 	smull	r4, r5, r3, ip
  3014ac:	e0453fc3 	sub	r3, r5, r3, asr #31
  3014b0:	e0c54c93 	smull	r4, r5, r3, ip
  3014b4:	e0452fc3 	sub	r2, r5, r3, asr #31
  3014b8:	e0822082 	add	r2, r2, r2, lsl #1
  3014bc:	e1530002 	cmp	r3, r2
  3014c0:	0afffff8 	beq	3014a8 <kiss_fft_next_fast_size+0x4c>
  3014c4:	e0c54193 	smull	r4, r5, r3, r1
  3014c8:	e1a02fc3 	asr	r2, r3, #31
  3014cc:	e06220c5 	rsb	r2, r2, r5, asr #1
  3014d0:	e0822102 	add	r2, r2, r2, lsl #2
  3014d4:	e1530002 	cmp	r3, r2
  3014d8:	1a000008 	bne	301500 <kiss_fft_next_fast_size+0xa4>
  3014dc:	e0c54193 	smull	r4, r5, r3, r1
  3014e0:	e1a03fc3 	asr	r3, r3, #31
  3014e4:	e06330c5 	rsb	r3, r3, r5, asr #1
  3014e8:	e0c54193 	smull	r4, r5, r3, r1
  3014ec:	e1a02fc3 	asr	r2, r3, #31
  3014f0:	e06220c5 	rsb	r2, r2, r5, asr #1
  3014f4:	e0822102 	add	r2, r2, r2, lsl #2
  3014f8:	e1530002 	cmp	r3, r2
  3014fc:	0afffff6 	beq	3014dc <kiss_fft_next_fast_size+0x80>
  301500:	e3530001 	cmp	r3, #1
  301504:	c2800001 	addgt	r0, r0, #1
  301508:	caffffd8 	bgt	301470 <kiss_fft_next_fast_size+0x14>
  30150c:	e8bd0030 	pop	{r4, r5}
  301510:	e12fff1e 	bx	lr

00301514 <kiss_fftr_alloc>:
  301514:	e92d4ff0 	push	{r4, r5, r6, r7, r8, r9, sl, fp, lr}
  301518:	e24dd014 	sub	sp, sp, #20
  30151c:	e3100001 	tst	r0, #1
  301520:	0a000008 	beq	301548 <kiss_fftr_alloc+0x34>
  301524:	e30f3008 	movw	r3, #61448	; 0xf008
  301528:	e3403030 	movt	r3, #48	; 0x30
  30152c:	e5933000 	ldr	r3, [r3]
  301530:	e593000c 	ldr	r0, [r3, #12]
  301534:	e30e1390 	movw	r1, #58256	; 0xe390
  301538:	e3401030 	movt	r1, #48	; 0x30
  30153c:	eb0009cd 	bl	303c78 <fprintf>
  301540:	e3a00000 	mov	r0, #0
  301544:	ea00005a 	b	3016b4 <kiss_fftr_alloc+0x1a0>
  301548:	e1a07001 	mov	r7, r1
  30154c:	e1a08002 	mov	r8, r2
  301550:	e1a04003 	mov	r4, r3
  301554:	e1a030c0 	asr	r3, r0, #1
  301558:	e1a05003 	mov	r5, r3
  30155c:	e58d3004 	str	r3, [sp, #4]
  301560:	e1a00003 	mov	r0, r3
  301564:	e3a02000 	mov	r2, #0
  301568:	e28d300c 	add	r3, sp, #12
  30156c:	ebffff25 	bl	301208 <kiss_fft_alloc>
  301570:	e59d000c 	ldr	r0, [sp, #12]
  301574:	e280000c 	add	r0, r0, #12
  301578:	e0853085 	add	r3, r5, r5, lsl #1
  30157c:	e0833fa3 	add	r3, r3, r3, lsr #31
  301580:	e1a030c3 	asr	r3, r3, #1
  301584:	e0800183 	add	r0, r0, r3, lsl #3
  301588:	e3540000 	cmp	r4, #0
  30158c:	1a000002 	bne	30159c <kiss_fftr_alloc+0x88>
  301590:	eb0009c8 	bl	303cb8 <malloc>
  301594:	e1a08000 	mov	r8, r0
  301598:	ea000003 	b	3015ac <kiss_fftr_alloc+0x98>
  30159c:	e5943000 	ldr	r3, [r4]
  3015a0:	e1500003 	cmp	r0, r3
  3015a4:	83a08000 	movhi	r8, #0
  3015a8:	e5840000 	str	r0, [r4]
  3015ac:	e3580000 	cmp	r8, #0
  3015b0:	0a00003c 	beq	3016a8 <kiss_fftr_alloc+0x194>
  3015b4:	e288200c 	add	r2, r8, #12
  3015b8:	e5882000 	str	r2, [r8]
  3015bc:	e28d3010 	add	r3, sp, #16
  3015c0:	e5331004 	ldr	r1, [r3, #-4]!
  3015c4:	e0821001 	add	r1, r2, r1
  3015c8:	e5881004 	str	r1, [r8, #4]
  3015cc:	e59d4004 	ldr	r4, [sp, #4]
  3015d0:	e1a00004 	mov	r0, r4
  3015d4:	e0811184 	add	r1, r1, r4, lsl #3
  3015d8:	e5881008 	str	r1, [r8, #8]
  3015dc:	e1a01007 	mov	r1, r7
  3015e0:	ebffff08 	bl	301208 <kiss_fft_alloc>
  3015e4:	e0849fa4 	add	r9, r4, r4, lsr #31
  3015e8:	e1a090c9 	asr	r9, r9, #1
  3015ec:	e3590000 	cmp	r9, #0
  3015f0:	da00002e 	ble	3016b0 <kiss_fftr_alloc+0x19c>
  3015f4:	e3a06000 	mov	r6, #0
  3015f8:	e2866001 	add	r6, r6, #1
  3015fc:	e1a00006 	mov	r0, r6
  301600:	eb002dbc 	bl	30ccf8 <__aeabi_i2d>
  301604:	e1a04000 	mov	r4, r0
  301608:	e1a05001 	mov	r5, r1
  30160c:	e59d0004 	ldr	r0, [sp, #4]
  301610:	eb002db8 	bl	30ccf8 <__aeabi_i2d>
  301614:	e1a02000 	mov	r2, r0
  301618:	e1a03001 	mov	r3, r1
  30161c:	e1a00004 	mov	r0, r4
  301620:	e1a01005 	mov	r1, r5
  301624:	eb002e8e 	bl	30d064 <__aeabi_ddiv>
  301628:	e3a02000 	mov	r2, #0
  30162c:	e3a03000 	mov	r3, #0
  301630:	e3433fe0 	movt	r3, #16352	; 0x3fe0
  301634:	eb002ce2 	bl	30c9c4 <__adddf3>
  301638:	e3022d18 	movw	r2, #11544	; 0x2d18
  30163c:	e3452444 	movt	r2, #21572	; 0x5444
  301640:	e30231fb 	movw	r3, #8699	; 0x21fb
  301644:	e34c3009 	movt	r3, #49161	; 0xc009
  301648:	eb002de1 	bl	30cdd4 <__aeabi_dmul>
  30164c:	e58d0000 	str	r0, [sp]
  301650:	e1a04001 	mov	r4, r1
  301654:	e3570000 	cmp	r7, #0
  301658:	12814102 	addne	r4, r1, #-2147483648	; 0x80000000
  30165c:	e246521e 	sub	r5, r6, #-536870911	; 0xe0000001
  301660:	e1a0a185 	lsl	sl, r5, #3
  301664:	e598b008 	ldr	fp, [r8, #8]
  301668:	e59d0000 	ldr	r0, [sp]
  30166c:	e1a01004 	mov	r1, r4
  301670:	eb000145 	bl	301b8c <cos>
  301674:	eb002f65 	bl	30d410 <__aeabi_d2f>
  301678:	e78b0185 	str	r0, [fp, r5, lsl #3]
  30167c:	e5983008 	ldr	r3, [r8, #8]
  301680:	e083a00a 	add	sl, r3, sl
  301684:	e59d0000 	ldr	r0, [sp]
  301688:	e1a01004 	mov	r1, r4
  30168c:	eb0001e5 	bl	301e28 <sin>
  301690:	eb002f5e 	bl	30d410 <__aeabi_d2f>
  301694:	e58a0004 	str	r0, [sl, #4]
  301698:	e1560009 	cmp	r6, r9
  30169c:	1affffd5 	bne	3015f8 <kiss_fftr_alloc+0xe4>
  3016a0:	e1a00008 	mov	r0, r8
  3016a4:	ea000002 	b	3016b4 <kiss_fftr_alloc+0x1a0>
  3016a8:	e3a00000 	mov	r0, #0
  3016ac:	ea000000 	b	3016b4 <kiss_fftr_alloc+0x1a0>
  3016b0:	e1a00008 	mov	r0, r8
  3016b4:	e28dd014 	add	sp, sp, #20
  3016b8:	e8bd8ff0 	pop	{r4, r5, r6, r7, r8, r9, sl, fp, pc}

003016bc <kiss_fftr>:
  3016bc:	e92d4ff0 	push	{r4, r5, r6, r7, r8, r9, sl, fp, lr}
  3016c0:	e24dd01c 	sub	sp, sp, #28
  3016c4:	e1a0b000 	mov	fp, r0
  3016c8:	e5900000 	ldr	r0, [r0]
  3016cc:	e5903004 	ldr	r3, [r0, #4]
  3016d0:	e3530000 	cmp	r3, #0
  3016d4:	0a000008 	beq	3016fc <kiss_fftr+0x40>
  3016d8:	e30f3008 	movw	r3, #61448	; 0xf008
  3016dc:	e3403030 	movt	r3, #48	; 0x30
  3016e0:	e5933000 	ldr	r3, [r3]
  3016e4:	e593000c 	ldr	r0, [r3, #12]
  3016e8:	e30e13b8 	movw	r1, #58296	; 0xe3b8
  3016ec:	e3401030 	movt	r1, #48	; 0x30
  3016f0:	eb000960 	bl	303c78 <fprintf>
  3016f4:	e3a00001 	mov	r0, #1
  3016f8:	eb000945 	bl	303c14 <exit>
  3016fc:	e1a05002 	mov	r5, r2
  301700:	e5904000 	ldr	r4, [r0]
  301704:	e59b2004 	ldr	r2, [fp, #4]
  301708:	ebffff4e 	bl	301448 <kiss_fft>
  30170c:	e59b3004 	ldr	r3, [fp, #4]
  301710:	e5938000 	ldr	r8, [r3]
  301714:	e5937004 	ldr	r7, [r3, #4]
  301718:	e1a00008 	mov	r0, r8
  30171c:	e1a01007 	mov	r1, r7
  301720:	eb002f65 	bl	30d4bc <__addsf3>
  301724:	e5850000 	str	r0, [r5]
  301728:	e0856184 	add	r6, r5, r4, lsl #3
  30172c:	e1a00008 	mov	r0, r8
  301730:	e1a01007 	mov	r1, r7
  301734:	eb002f5f 	bl	30d4b8 <__aeabi_fsub>
  301738:	e7850184 	str	r0, [r5, r4, lsl #3]
  30173c:	e3a03000 	mov	r3, #0
  301740:	e5853004 	str	r3, [r5, #4]
  301744:	e5863004 	str	r3, [r6, #4]
  301748:	e0844fa4 	add	r4, r4, r4, lsr #31
  30174c:	e1a030c4 	asr	r3, r4, #1
  301750:	e58d300c 	str	r3, [sp, #12]
  301754:	e3530000 	cmp	r3, #0
  301758:	da00005c 	ble	3018d0 <kiss_fftr+0x214>
  30175c:	e58d5010 	str	r5, [sp, #16]
  301760:	e1a07006 	mov	r7, r6
  301764:	e3a04001 	mov	r4, #1
  301768:	e26534ff 	rsb	r3, r5, #-16777216	; 0xff000000
  30176c:	e28338ff 	add	r3, r3, #16711680	; 0xff0000
  301770:	e2833cff 	add	r3, r3, #65280	; 0xff00
  301774:	e28330f8 	add	r3, r3, #248	; 0xf8
  301778:	e58d3014 	str	r3, [sp, #20]
  30177c:	e59b3004 	ldr	r3, [fp, #4]
  301780:	e0832184 	add	r2, r3, r4, lsl #3
  301784:	e793a184 	ldr	sl, [r3, r4, lsl #3]
  301788:	e5926004 	ldr	r6, [r2, #4]
  30178c:	e59d2014 	ldr	r2, [sp, #20]
  301790:	e0822007 	add	r2, r2, r7
  301794:	e0831002 	add	r1, r3, r2
  301798:	e7939002 	ldr	r9, [r3, r2]
  30179c:	e5918004 	ldr	r8, [r1, #4]
  3017a0:	e1a00009 	mov	r0, r9
  3017a4:	e1a0100a 	mov	r1, sl
  3017a8:	eb002f43 	bl	30d4bc <__addsf3>
  3017ac:	e58d0004 	str	r0, [sp, #4]
  3017b0:	e1a00006 	mov	r0, r6
  3017b4:	e1a01008 	mov	r1, r8
  3017b8:	eb002f3e 	bl	30d4b8 <__aeabi_fsub>
  3017bc:	e58d0008 	str	r0, [sp, #8]
  3017c0:	e1a0000a 	mov	r0, sl
  3017c4:	e1a01009 	mov	r1, r9
  3017c8:	eb002f3a 	bl	30d4b8 <__aeabi_fsub>
  3017cc:	e1a0a000 	mov	sl, r0
  3017d0:	e1a00008 	mov	r0, r8
  3017d4:	e1a01006 	mov	r1, r6
  3017d8:	eb002f37 	bl	30d4bc <__addsf3>
  3017dc:	e58d0000 	str	r0, [sp]
  3017e0:	e59d3010 	ldr	r3, [sp, #16]
  3017e4:	e0633005 	rsb	r3, r3, r5
  3017e8:	e59b2008 	ldr	r2, [fp, #8]
  3017ec:	e0821003 	add	r1, r2, r3
  3017f0:	e7928003 	ldr	r8, [r2, r3]
  3017f4:	e5919004 	ldr	r9, [r1, #4]
  3017f8:	e1a0000a 	mov	r0, sl
  3017fc:	e1a01008 	mov	r1, r8
  301800:	eb002fd5 	bl	30d75c <__aeabi_fmul>
  301804:	e1a06000 	mov	r6, r0
  301808:	e59d0000 	ldr	r0, [sp]
  30180c:	e1a01009 	mov	r1, r9
  301810:	eb002fd1 	bl	30d75c <__aeabi_fmul>
  301814:	e1a01000 	mov	r1, r0
  301818:	e1a00006 	mov	r0, r6
  30181c:	eb002f25 	bl	30d4b8 <__aeabi_fsub>
  301820:	e1a06000 	mov	r6, r0
  301824:	e1a0000a 	mov	r0, sl
  301828:	e1a01009 	mov	r1, r9
  30182c:	eb002fca 	bl	30d75c <__aeabi_fmul>
  301830:	e1a09000 	mov	r9, r0
  301834:	e59d0000 	ldr	r0, [sp]
  301838:	e1a01008 	mov	r1, r8
  30183c:	eb002fc6 	bl	30d75c <__aeabi_fmul>
  301840:	e1a01000 	mov	r1, r0
  301844:	e1a00009 	mov	r0, r9
  301848:	eb002f1b 	bl	30d4bc <__addsf3>
  30184c:	e1a08000 	mov	r8, r0
  301850:	e59da004 	ldr	sl, [sp, #4]
  301854:	e1a0000a 	mov	r0, sl
  301858:	e1a01006 	mov	r1, r6
  30185c:	eb002f16 	bl	30d4bc <__addsf3>
  301860:	e3a0143f 	mov	r1, #1056964608	; 0x3f000000
  301864:	eb002fbc 	bl	30d75c <__aeabi_fmul>
  301868:	e5850008 	str	r0, [r5, #8]
  30186c:	e59d9008 	ldr	r9, [sp, #8]
  301870:	e1a00009 	mov	r0, r9
  301874:	e1a01008 	mov	r1, r8
  301878:	eb002f0f 	bl	30d4bc <__addsf3>
  30187c:	e3a0143f 	mov	r1, #1056964608	; 0x3f000000
  301880:	eb002fb5 	bl	30d75c <__aeabi_fmul>
  301884:	e585000c 	str	r0, [r5, #12]
  301888:	e1a0000a 	mov	r0, sl
  30188c:	e1a01006 	mov	r1, r6
  301890:	eb002f08 	bl	30d4b8 <__aeabi_fsub>
  301894:	e3a0143f 	mov	r1, #1056964608	; 0x3f000000
  301898:	eb002faf 	bl	30d75c <__aeabi_fmul>
  30189c:	e5070008 	str	r0, [r7, #-8]
  3018a0:	e1a00008 	mov	r0, r8
  3018a4:	e1a01009 	mov	r1, r9
  3018a8:	eb002f02 	bl	30d4b8 <__aeabi_fsub>
  3018ac:	e3a0143f 	mov	r1, #1056964608	; 0x3f000000
  3018b0:	eb002fa9 	bl	30d75c <__aeabi_fmul>
  3018b4:	e5070004 	str	r0, [r7, #-4]
  3018b8:	e2844001 	add	r4, r4, #1
  3018bc:	e2855008 	add	r5, r5, #8
  3018c0:	e2477008 	sub	r7, r7, #8
  3018c4:	e59d300c 	ldr	r3, [sp, #12]
  3018c8:	e1540003 	cmp	r4, r3
  3018cc:	daffffaa 	ble	30177c <kiss_fftr+0xc0>
  3018d0:	e28dd01c 	add	sp, sp, #28
  3018d4:	e8bd8ff0 	pop	{r4, r5, r6, r7, r8, r9, sl, fp, pc}

003018d8 <kiss_fftri>:
  3018d8:	e92d4ff0 	push	{r4, r5, r6, r7, r8, r9, sl, fp, lr}
  3018dc:	e24dd02c 	sub	sp, sp, #44	; 0x2c
  3018e0:	e1a06000 	mov	r6, r0
  3018e4:	e58d2024 	str	r2, [sp, #36]	; 0x24
  3018e8:	e5903000 	ldr	r3, [r0]
  3018ec:	e5932004 	ldr	r2, [r3, #4]
  3018f0:	e3520000 	cmp	r2, #0
  3018f4:	1a000008 	bne	30191c <kiss_fftri+0x44>
  3018f8:	e30f3008 	movw	r3, #61448	; 0xf008
  3018fc:	e3403030 	movt	r3, #48	; 0x30
  301900:	e5933000 	ldr	r3, [r3]
  301904:	e593000c 	ldr	r0, [r3, #12]
  301908:	e30e13b8 	movw	r1, #58296	; 0xe3b8
  30190c:	e3401030 	movt	r1, #48	; 0x30
  301910:	eb0008d8 	bl	303c78 <fprintf>
  301914:	e3a00001 	mov	r0, #1
  301918:	eb0008bd 	bl	303c14 <exit>
  30191c:	e1a05001 	mov	r5, r1
  301920:	e5934000 	ldr	r4, [r3]
  301924:	e5907004 	ldr	r7, [r0, #4]
  301928:	e0818184 	add	r8, r1, r4, lsl #3
  30192c:	e5910000 	ldr	r0, [r1]
  301930:	e7911184 	ldr	r1, [r1, r4, lsl #3]
  301934:	eb002ee0 	bl	30d4bc <__addsf3>
  301938:	e5870000 	str	r0, [r7]
  30193c:	e5967004 	ldr	r7, [r6, #4]
  301940:	e5950000 	ldr	r0, [r5]
  301944:	e7951184 	ldr	r1, [r5, r4, lsl #3]
  301948:	eb002eda 	bl	30d4b8 <__aeabi_fsub>
  30194c:	e5870004 	str	r0, [r7, #4]
  301950:	e0844fa4 	add	r4, r4, r4, lsr #31
  301954:	e1a030c4 	asr	r3, r4, #1
  301958:	e58d3018 	str	r3, [sp, #24]
  30195c:	e3530000 	cmp	r3, #0
  301960:	da00005f 	ble	301ae4 <kiss_fftri+0x20c>
  301964:	e58d501c 	str	r5, [sp, #28]
  301968:	e1a0a008 	mov	sl, r8
  30196c:	e1a0b005 	mov	fp, r5
  301970:	e3a07001 	mov	r7, #1
  301974:	e26534ff 	rsb	r3, r5, #-16777216	; 0xff000000
  301978:	e28338ff 	add	r3, r3, #16711680	; 0xff0000
  30197c:	e2833cff 	add	r3, r3, #65280	; 0xff00
  301980:	e28330f8 	add	r3, r3, #248	; 0xf8
  301984:	e58d3020 	str	r3, [sp, #32]
  301988:	e1a08187 	lsl	r8, r7, #3
  30198c:	e59b3008 	ldr	r3, [fp, #8]
  301990:	e59b400c 	ldr	r4, [fp, #12]
  301994:	e59d2020 	ldr	r2, [sp, #32]
  301998:	e082900a 	add	r9, r2, sl
  30199c:	e51a2008 	ldr	r2, [sl, #-8]
  3019a0:	e51a5004 	ldr	r5, [sl, #-4]
  3019a4:	e58d2008 	str	r2, [sp, #8]
  3019a8:	e1a00002 	mov	r0, r2
  3019ac:	e58d300c 	str	r3, [sp, #12]
  3019b0:	e1a01003 	mov	r1, r3
  3019b4:	eb002ec0 	bl	30d4bc <__addsf3>
  3019b8:	e58d0004 	str	r0, [sp, #4]
  3019bc:	e1a00004 	mov	r0, r4
  3019c0:	e1a01005 	mov	r1, r5
  3019c4:	eb002ebb 	bl	30d4b8 <__aeabi_fsub>
  3019c8:	e58d0014 	str	r0, [sp, #20]
  3019cc:	e59d000c 	ldr	r0, [sp, #12]
  3019d0:	e59d1008 	ldr	r1, [sp, #8]
  3019d4:	eb002eb7 	bl	30d4b8 <__aeabi_fsub>
  3019d8:	e58d0008 	str	r0, [sp, #8]
  3019dc:	e1a00005 	mov	r0, r5
  3019e0:	e1a01004 	mov	r1, r4
  3019e4:	eb002eb4 	bl	30d4bc <__addsf3>
  3019e8:	e58d000c 	str	r0, [sp, #12]
  3019ec:	e59d301c 	ldr	r3, [sp, #28]
  3019f0:	e063300b 	rsb	r3, r3, fp
  3019f4:	e5962008 	ldr	r2, [r6, #8]
  3019f8:	e0821003 	add	r1, r2, r3
  3019fc:	e7924003 	ldr	r4, [r2, r3]
  301a00:	e5915004 	ldr	r5, [r1, #4]
  301a04:	e59d0008 	ldr	r0, [sp, #8]
  301a08:	e1a01004 	mov	r1, r4
  301a0c:	eb002f52 	bl	30d75c <__aeabi_fmul>
  301a10:	e58d0010 	str	r0, [sp, #16]
  301a14:	e59d000c 	ldr	r0, [sp, #12]
  301a18:	e1a01005 	mov	r1, r5
  301a1c:	eb002f4e 	bl	30d75c <__aeabi_fmul>
  301a20:	e1a01000 	mov	r1, r0
  301a24:	e59d0010 	ldr	r0, [sp, #16]
  301a28:	eb002ea2 	bl	30d4b8 <__aeabi_fsub>
  301a2c:	e58d0010 	str	r0, [sp, #16]
  301a30:	e59d0008 	ldr	r0, [sp, #8]
  301a34:	e1a01005 	mov	r1, r5
  301a38:	eb002f47 	bl	30d75c <__aeabi_fmul>
  301a3c:	e1a05000 	mov	r5, r0
  301a40:	e59d000c 	ldr	r0, [sp, #12]
  301a44:	e1a01004 	mov	r1, r4
  301a48:	eb002f43 	bl	30d75c <__aeabi_fmul>
  301a4c:	e1a01000 	mov	r1, r0
  301a50:	e1a00005 	mov	r0, r5
  301a54:	eb002e98 	bl	30d4bc <__addsf3>
  301a58:	e1a04000 	mov	r4, r0
  301a5c:	e5965004 	ldr	r5, [r6, #4]
  301a60:	e59d0004 	ldr	r0, [sp, #4]
  301a64:	e59d1010 	ldr	r1, [sp, #16]
  301a68:	eb002e93 	bl	30d4bc <__addsf3>
  301a6c:	e7850187 	str	r0, [r5, r7, lsl #3]
  301a70:	e5965004 	ldr	r5, [r6, #4]
  301a74:	e0855008 	add	r5, r5, r8
  301a78:	e59d8014 	ldr	r8, [sp, #20]
  301a7c:	e1a00008 	mov	r0, r8
  301a80:	e1a01004 	mov	r1, r4
  301a84:	eb002e8c 	bl	30d4bc <__addsf3>
  301a88:	e5850004 	str	r0, [r5, #4]
  301a8c:	e5965004 	ldr	r5, [r6, #4]
  301a90:	e59d0004 	ldr	r0, [sp, #4]
  301a94:	e59d1010 	ldr	r1, [sp, #16]
  301a98:	eb002e86 	bl	30d4b8 <__aeabi_fsub>
  301a9c:	e7850009 	str	r0, [r5, r9]
  301aa0:	e5965004 	ldr	r5, [r6, #4]
  301aa4:	e0855009 	add	r5, r5, r9
  301aa8:	e1a00008 	mov	r0, r8
  301aac:	e1a01004 	mov	r1, r4
  301ab0:	eb002e80 	bl	30d4b8 <__aeabi_fsub>
  301ab4:	e5850004 	str	r0, [r5, #4]
  301ab8:	e5963004 	ldr	r3, [r6, #4]
  301abc:	e0833009 	add	r3, r3, r9
  301ac0:	e5932004 	ldr	r2, [r3, #4]
  301ac4:	e2822102 	add	r2, r2, #-2147483648	; 0x80000000
  301ac8:	e5832004 	str	r2, [r3, #4]
  301acc:	e2877001 	add	r7, r7, #1
  301ad0:	e28bb008 	add	fp, fp, #8
  301ad4:	e24aa008 	sub	sl, sl, #8
  301ad8:	e59d3018 	ldr	r3, [sp, #24]
  301adc:	e1570003 	cmp	r7, r3
  301ae0:	daffffa8 	ble	301988 <kiss_fftri+0xb0>
  301ae4:	e5960000 	ldr	r0, [r6]
  301ae8:	e5961004 	ldr	r1, [r6, #4]
  301aec:	e59d2024 	ldr	r2, [sp, #36]	; 0x24
  301af0:	ebfffe54 	bl	301448 <kiss_fft>
  301af4:	e28dd02c 	add	sp, sp, #44	; 0x2c
  301af8:	e8bd8ff0 	pop	{r4, r5, r6, r7, r8, r9, sl, fp, pc}

00301afc <_sbrk>:
  301afc:	ef000000 	svc	0x00000000
  301b00:	e12fff1e 	bx	lr

00301b04 <_write>:
  301b04:	ef000001 	svc	0x00000001
  301b08:	e12fff1e 	bx	lr

00301b0c <_close>:
  301b0c:	ef000002 	svc	0x00000002
  301b10:	e12fff1e 	bx	lr

00301b14 <_fstat>:
  301b14:	ef000003 	svc	0x00000003
  301b18:	e12fff1e 	bx	lr

00301b1c <_isatty>:
  301b1c:	ef000004 	svc	0x00000004
  301b20:	e12fff1e 	bx	lr

00301b24 <_lseek>:
  301b24:	ef000005 	svc	0x00000005
  301b28:	e12fff1e 	bx	lr

00301b2c <_read>:
  301b2c:	ef000006 	svc	0x00000006
  301b30:	e12fff1e 	bx	lr

00301b34 <_exit>:
  301b34:	ef000007 	svc	0x00000007
  301b38:	e12fff1e 	bx	lr

00301b3c <sample_adc_start>:
  301b3c:	ef000008 	svc	0x00000008
  301b40:	e12fff1e 	bx	lr

00301b44 <sample_adc_stop>:
  301b44:	ef000009 	svc	0x00000009
  301b48:	e12fff1e 	bx	lr

00301b4c <thread_init>:
  301b4c:	ef00000a 	svc	0x0000000a
  301b50:	e12fff1e 	bx	lr

00301b54 <thread_create>:
  301b54:	ef00000b 	svc	0x0000000b
  301b58:	e12fff1e 	bx	lr

00301b5c <mutex_init>:
  301b5c:	ef00000c 	svc	0x0000000c
  301b60:	e12fff1e 	bx	lr

00301b64 <mutex_lock>:
  301b64:	ef00000d 	svc	0x0000000d
  301b68:	e12fff1e 	bx	lr

00301b6c <mutex_unlock>:
  301b6c:	ef00000e 	svc	0x0000000e
  301b70:	e12fff1e 	bx	lr

00301b74 <wait_until_next_period>:
  301b74:	ef00000f 	svc	0x0000000f
  301b78:	e12fff1e 	bx	lr

00301b7c <get_time>:
  301b7c:	ef000010 	svc	0x00000010
  301b80:	e12fff1e 	bx	lr

00301b84 <scheduler_start>:
  301b84:	ef000011 	svc	0x00000011
  301b88:	e12fff1e 	bx	lr

00301b8c <cos>:
  301b8c:	e92d4030 	push	{r4, r5, lr}
  301b90:	e59f20e8 	ldr	r2, [pc, #232]	; 301c80 <cos+0xf4>
  301b94:	e3c13102 	bic	r3, r1, #-2147483648	; 0x80000000
  301b98:	e1530002 	cmp	r3, r2
  301b9c:	e24dd01c 	sub	sp, sp, #28
  301ba0:	da000019 	ble	301c0c <cos+0x80>
  301ba4:	e59f20d8 	ldr	r2, [pc, #216]	; 301c84 <cos+0xf8>
  301ba8:	e1530002 	cmp	r3, r2
  301bac:	da000005 	ble	301bc8 <cos+0x3c>
  301bb0:	e1a02000 	mov	r2, r0
  301bb4:	e1a03001 	mov	r3, r1
  301bb8:	eb002b80 	bl	30c9c0 <__aeabi_dsub>
  301bbc:	e28dd01c 	add	sp, sp, #28
  301bc0:	e8bd4030 	pop	{r4, r5, lr}
  301bc4:	e12fff1e 	bx	lr
  301bc8:	e28d2008 	add	r2, sp, #8
  301bcc:	eb000125 	bl	302068 <__ieee754_rem_pio2>
  301bd0:	e2003003 	and	r3, r0, #3
  301bd4:	e3530001 	cmp	r3, #1
  301bd8:	0a000018 	beq	301c40 <cos+0xb4>
  301bdc:	e3530002 	cmp	r3, #2
  301be0:	0a00000f 	beq	301c24 <cos+0x98>
  301be4:	e3530000 	cmp	r3, #0
  301be8:	0a00001e 	beq	301c68 <cos+0xdc>
  301bec:	e3a0c001 	mov	ip, #1
  301bf0:	e28d1008 	add	r1, sp, #8
  301bf4:	e8910003 	ldm	r1, {r0, r1}
  301bf8:	e28d3010 	add	r3, sp, #16
  301bfc:	e893000c 	ldm	r3, {r2, r3}
  301c00:	e58dc000 	str	ip, [sp]
  301c04:	eb0006f5 	bl	3037e0 <__kernel_sin>
  301c08:	eaffffeb 	b	301bbc <cos+0x30>
  301c0c:	e3a02000 	mov	r2, #0
  301c10:	e3a03000 	mov	r3, #0
  301c14:	eb00032d 	bl	3028d0 <__kernel_cos>
  301c18:	e28dd01c 	add	sp, sp, #28
  301c1c:	e8bd4030 	pop	{r4, r5, lr}
  301c20:	e12fff1e 	bx	lr
  301c24:	e28d1008 	add	r1, sp, #8
  301c28:	e8910003 	ldm	r1, {r0, r1}
  301c2c:	e28d3010 	add	r3, sp, #16
  301c30:	e893000c 	ldm	r3, {r2, r3}
  301c34:	eb000325 	bl	3028d0 <__kernel_cos>
  301c38:	e2811102 	add	r1, r1, #-2147483648	; 0x80000000
  301c3c:	eaffffde 	b	301bbc <cos+0x30>
  301c40:	e28d5010 	add	r5, sp, #16
  301c44:	e8950030 	ldm	r5, {r4, r5}
  301c48:	e58d3000 	str	r3, [sp]
  301c4c:	e28d1008 	add	r1, sp, #8
  301c50:	e8910003 	ldm	r1, {r0, r1}
  301c54:	e1a02004 	mov	r2, r4
  301c58:	e1a03005 	mov	r3, r5
  301c5c:	eb0006df 	bl	3037e0 <__kernel_sin>
  301c60:	e2811102 	add	r1, r1, #-2147483648	; 0x80000000
  301c64:	eaffffd4 	b	301bbc <cos+0x30>
  301c68:	e28d1008 	add	r1, sp, #8
  301c6c:	e8910003 	ldm	r1, {r0, r1}
  301c70:	e28d3010 	add	r3, sp, #16
  301c74:	e893000c 	ldm	r3, {r2, r3}
  301c78:	eb000314 	bl	3028d0 <__kernel_cos>
  301c7c:	eaffffce 	b	301bbc <cos+0x30>
  301c80:	3fe921fb 	svccc	0x00e921fb
  301c84:	7fefffff 	svcvc	0x00efffff

00301c88 <floor>:
  301c88:	e92d43f8 	push	{r3, r4, r5, r6, r7, r8, r9, lr}
  301c8c:	e1a05081 	lsl	r5, r1, #1
  301c90:	e1a05aa5 	lsr	r5, r5, #21
  301c94:	e2454fff 	sub	r4, r5, #1020	; 0x3fc
  301c98:	e2444003 	sub	r4, r4, #3
  301c9c:	e3540013 	cmp	r4, #19
  301ca0:	e1a03001 	mov	r3, r1
  301ca4:	e1a0c000 	mov	ip, r0
  301ca8:	e1a07001 	mov	r7, r1
  301cac:	e1a02000 	mov	r2, r0
  301cb0:	e1a08001 	mov	r8, r1
  301cb4:	e1a06000 	mov	r6, r0
  301cb8:	ca000017 	bgt	301d1c <floor+0x94>
  301cbc:	e3540000 	cmp	r4, #0
  301cc0:	ba000032 	blt	301d90 <floor+0x108>
  301cc4:	e59f5154 	ldr	r5, [pc, #340]	; 301e20 <floor+0x198>
  301cc8:	e1a05455 	asr	r5, r5, r4
  301ccc:	e005e001 	and	lr, r5, r1
  301cd0:	e19e2002 	orrs	r2, lr, r2
  301cd4:	0a000014 	beq	301d2c <floor+0xa4>
  301cd8:	e28f3f4e 	add	r3, pc, #312	; 0x138
  301cdc:	e893000c 	ldm	r3, {r2, r3}
  301ce0:	eb002b37 	bl	30c9c4 <__adddf3>
  301ce4:	e3a02000 	mov	r2, #0
  301ce8:	e3a03000 	mov	r3, #0
  301cec:	eb002daa 	bl	30d39c <__aeabi_dcmpgt>
  301cf0:	e3500000 	cmp	r0, #0
  301cf4:	0a000004 	beq	301d0c <floor+0x84>
  301cf8:	e3570000 	cmp	r7, #0
  301cfc:	b3a03601 	movlt	r3, #1048576	; 0x100000
  301d00:	e3a06000 	mov	r6, #0
  301d04:	b0878453 	addlt	r8, r7, r3, asr r4
  301d08:	e1c87005 	bic	r7, r8, r5
  301d0c:	e1a00006 	mov	r0, r6
  301d10:	e1a01007 	mov	r1, r7
  301d14:	e8bd43f8 	pop	{r3, r4, r5, r6, r7, r8, r9, lr}
  301d18:	e12fff1e 	bx	lr
  301d1c:	e3540033 	cmp	r4, #51	; 0x33
  301d20:	da000005 	ble	301d3c <floor+0xb4>
  301d24:	e3540b01 	cmp	r4, #1024	; 0x400
  301d28:	0a00002a 	beq	301dd8 <floor+0x150>
  301d2c:	e1a0000c 	mov	r0, ip
  301d30:	e1a01003 	mov	r1, r3
  301d34:	e8bd43f8 	pop	{r3, r4, r5, r6, r7, r8, r9, lr}
  301d38:	e12fff1e 	bx	lr
  301d3c:	e3e09000 	mvn	r9, #0
  301d40:	e2452e41 	sub	r2, r5, #1040	; 0x410
  301d44:	e2422003 	sub	r2, r2, #3
  301d48:	e1a09239 	lsr	r9, r9, r2
  301d4c:	e1190000 	tst	r9, r0
  301d50:	0afffff5 	beq	301d2c <floor+0xa4>
  301d54:	e28f30bc 	add	r3, pc, #188	; 0xbc
  301d58:	e893000c 	ldm	r3, {r2, r3}
  301d5c:	eb002b18 	bl	30c9c4 <__adddf3>
  301d60:	e3a02000 	mov	r2, #0
  301d64:	e3a03000 	mov	r3, #0
  301d68:	eb002d8b 	bl	30d39c <__aeabi_dcmpgt>
  301d6c:	e3500000 	cmp	r0, #0
  301d70:	0affffe5 	beq	301d0c <floor+0x84>
  301d74:	e3570000 	cmp	r7, #0
  301d78:	ba00001a 	blt	301de8 <floor+0x160>
  301d7c:	e1a07008 	mov	r7, r8
  301d80:	e1c66009 	bic	r6, r6, r9
  301d84:	e1a00006 	mov	r0, r6
  301d88:	e1a01007 	mov	r1, r7
  301d8c:	eaffffe0 	b	301d14 <floor+0x8c>
  301d90:	e28f3080 	add	r3, pc, #128	; 0x80
  301d94:	e893000c 	ldm	r3, {r2, r3}
  301d98:	eb002b09 	bl	30c9c4 <__adddf3>
  301d9c:	e3a02000 	mov	r2, #0
  301da0:	e3a03000 	mov	r3, #0
  301da4:	eb002d7c 	bl	30d39c <__aeabi_dcmpgt>
  301da8:	e3500000 	cmp	r0, #0
  301dac:	0affffd6 	beq	301d0c <floor+0x84>
  301db0:	e3570000 	cmp	r7, #0
  301db4:	a3a06000 	movge	r6, #0
  301db8:	a1a07006 	movge	r7, r6
  301dbc:	aaffffd2 	bge	301d0c <floor+0x84>
  301dc0:	e3c72102 	bic	r2, r7, #-2147483648	; 0x80000000
  301dc4:	e59f3058 	ldr	r3, [pc, #88]	; 301e24 <floor+0x19c>
  301dc8:	e1922006 	orrs	r2, r2, r6
  301dcc:	11a07003 	movne	r7, r3
  301dd0:	e3a06000 	mov	r6, #0
  301dd4:	eaffffcc 	b	301d0c <floor+0x84>
  301dd8:	e1a02000 	mov	r2, r0
  301ddc:	e1a03001 	mov	r3, r1
  301de0:	eb002af7 	bl	30c9c4 <__adddf3>
  301de4:	eaffffd2 	b	301d34 <floor+0xac>
  301de8:	e3540014 	cmp	r4, #20
  301dec:	02878001 	addeq	r8, r7, #1
  301df0:	0affffe1 	beq	301d7c <floor+0xf4>
  301df4:	e3a03001 	mov	r3, #1
  301df8:	e2655e43 	rsb	r5, r5, #1072	; 0x430
  301dfc:	e2855003 	add	r5, r5, #3
  301e00:	e0865513 	add	r5, r6, r3, lsl r5
  301e04:	e1560005 	cmp	r6, r5
  301e08:	80888003 	addhi	r8, r8, r3
  301e0c:	e1a06005 	mov	r6, r5
  301e10:	eaffffd9 	b	301d7c <floor+0xf4>
  301e14:	e1a00000 	nop			; (mov r0, r0)
  301e18:	8800759c 	stmdahi	r0, {r2, r3, r4, r7, r8, sl, ip, sp, lr}
  301e1c:	7e37e43c 	mrcvc	4, 1, lr, cr7, cr12, {1}
  301e20:	000fffff 	strdeq	pc, [pc], -pc	; <UNPREDICTABLE>
  301e24:	bff00000 	svclt	0x00f00000	; IMB

00301e28 <sin>:
  301e28:	e52de004 	push	{lr}		; (str lr, [sp, #-4]!)
  301e2c:	e59f20ec 	ldr	r2, [pc, #236]	; 301f20 <sin+0xf8>
  301e30:	e3c13102 	bic	r3, r1, #-2147483648	; 0x80000000
  301e34:	e1530002 	cmp	r3, r2
  301e38:	e24dd01c 	sub	sp, sp, #28
  301e3c:	da000018 	ble	301ea4 <sin+0x7c>
  301e40:	e59f20dc 	ldr	r2, [pc, #220]	; 301f24 <sin+0xfc>
  301e44:	e1530002 	cmp	r3, r2
  301e48:	da000005 	ble	301e64 <sin+0x3c>
  301e4c:	e1a02000 	mov	r2, r0
  301e50:	e1a03001 	mov	r3, r1
  301e54:	eb002ad9 	bl	30c9c0 <__aeabi_dsub>
  301e58:	e28dd01c 	add	sp, sp, #28
  301e5c:	e49de004 	pop	{lr}		; (ldr lr, [sp], #4)
  301e60:	e12fff1e 	bx	lr
  301e64:	e28d2008 	add	r2, sp, #8
  301e68:	eb00007e 	bl	302068 <__ieee754_rem_pio2>
  301e6c:	e2000003 	and	r0, r0, #3
  301e70:	e3500001 	cmp	r0, #1
  301e74:	0a00001b 	beq	301ee8 <sin+0xc0>
  301e78:	e3500002 	cmp	r0, #2
  301e7c:	0a000010 	beq	301ec4 <sin+0x9c>
  301e80:	e3500000 	cmp	r0, #0
  301e84:	0a00001d 	beq	301f00 <sin+0xd8>
  301e88:	e28d1008 	add	r1, sp, #8
  301e8c:	e8910003 	ldm	r1, {r0, r1}
  301e90:	e28d3010 	add	r3, sp, #16
  301e94:	e893000c 	ldm	r3, {r2, r3}
  301e98:	eb00028c 	bl	3028d0 <__kernel_cos>
  301e9c:	e2811102 	add	r1, r1, #-2147483648	; 0x80000000
  301ea0:	eaffffec 	b	301e58 <sin+0x30>
  301ea4:	e3a0c000 	mov	ip, #0
  301ea8:	e3a02000 	mov	r2, #0
  301eac:	e3a03000 	mov	r3, #0
  301eb0:	e58dc000 	str	ip, [sp]
  301eb4:	eb000649 	bl	3037e0 <__kernel_sin>
  301eb8:	e28dd01c 	add	sp, sp, #28
  301ebc:	e49de004 	pop	{lr}		; (ldr lr, [sp], #4)
  301ec0:	e12fff1e 	bx	lr
  301ec4:	e3a0c001 	mov	ip, #1
  301ec8:	e28d1008 	add	r1, sp, #8
  301ecc:	e8910003 	ldm	r1, {r0, r1}
  301ed0:	e28d3010 	add	r3, sp, #16
  301ed4:	e893000c 	ldm	r3, {r2, r3}
  301ed8:	e58dc000 	str	ip, [sp]
  301edc:	eb00063f 	bl	3037e0 <__kernel_sin>
  301ee0:	e2811102 	add	r1, r1, #-2147483648	; 0x80000000
  301ee4:	eaffffdb 	b	301e58 <sin+0x30>
  301ee8:	e28d1008 	add	r1, sp, #8
  301eec:	e8910003 	ldm	r1, {r0, r1}
  301ef0:	e28d3010 	add	r3, sp, #16
  301ef4:	e893000c 	ldm	r3, {r2, r3}
  301ef8:	eb000274 	bl	3028d0 <__kernel_cos>
  301efc:	eaffffd5 	b	301e58 <sin+0x30>
  301f00:	e3a0c001 	mov	ip, #1
  301f04:	e28d1008 	add	r1, sp, #8
  301f08:	e8910003 	ldm	r1, {r0, r1}
  301f0c:	e28d3010 	add	r3, sp, #16
  301f10:	e893000c 	ldm	r3, {r2, r3}
  301f14:	e58dc000 	str	ip, [sp]
  301f18:	eb000630 	bl	3037e0 <__kernel_sin>
  301f1c:	eaffffcd 	b	301e58 <sin+0x30>
  301f20:	3fe921fb 	svccc	0x00e921fb
  301f24:	7fefffff 	svcvc	0x00efffff

00301f28 <sqrt>:
  301f28:	e92d43f0 	push	{r4, r5, r6, r7, r8, r9, lr}
  301f2c:	e24dd02c 	sub	sp, sp, #44	; 0x2c
  301f30:	e1a06000 	mov	r6, r0
  301f34:	e1a07001 	mov	r7, r1
  301f38:	eb0001dc 	bl	3026b0 <__ieee754_sqrt>
  301f3c:	e59f8118 	ldr	r8, [pc, #280]	; 30205c <sqrt+0x134>
  301f40:	e1d830d0 	ldrsb	r3, [r8]
  301f44:	e3730001 	cmn	r3, #1
  301f48:	e1a04000 	mov	r4, r0
  301f4c:	e1a05001 	mov	r5, r1
  301f50:	0a00000e 	beq	301f90 <sqrt+0x68>
  301f54:	e1a01007 	mov	r1, r7
  301f58:	e1a00006 	mov	r0, r6
  301f5c:	eb0006a0 	bl	3039e4 <__fpclassifyd>
  301f60:	e3a03000 	mov	r3, #0
  301f64:	e2909000 	adds	r9, r0, #0
  301f68:	e3a02000 	mov	r2, #0
  301f6c:	e1a00006 	mov	r0, r6
  301f70:	e1a01007 	mov	r1, r7
  301f74:	13a09001 	movne	r9, #1
  301f78:	eb002cf5 	bl	30d354 <__aeabi_dcmplt>
  301f7c:	e3500000 	cmp	r0, #0
  301f80:	e3a03001 	mov	r3, #1
  301f84:	01a03000 	moveq	r3, r0
  301f88:	e1190003 	tst	r9, r3
  301f8c:	1a000004 	bne	301fa4 <sqrt+0x7c>
  301f90:	e1a00004 	mov	r0, r4
  301f94:	e1a01005 	mov	r1, r5
  301f98:	e28dd02c 	add	sp, sp, #44	; 0x2c
  301f9c:	e8bd43f0 	pop	{r4, r5, r6, r7, r8, r9, lr}
  301fa0:	e12fff1e 	bx	lr
  301fa4:	e3a02000 	mov	r2, #0
  301fa8:	e3a01001 	mov	r1, #1
  301fac:	e5d84000 	ldrb	r4, [r8]
  301fb0:	e59f30a8 	ldr	r3, [pc, #168]	; 302060 <sqrt+0x138>
  301fb4:	e1540002 	cmp	r4, r2
  301fb8:	e58d6010 	str	r6, [sp, #16]
  301fbc:	e58d7014 	str	r7, [sp, #20]
  301fc0:	e58d6008 	str	r6, [sp, #8]
  301fc4:	e58d700c 	str	r7, [sp, #12]
  301fc8:	e58d1000 	str	r1, [sp]
  301fcc:	e58d2020 	str	r2, [sp, #32]
  301fd0:	e58d3004 	str	r3, [sp, #4]
  301fd4:	1a00000f 	bne	302018 <sqrt+0xf0>
  301fd8:	e3a02000 	mov	r2, #0
  301fdc:	e3a03000 	mov	r3, #0
  301fe0:	e58d2018 	str	r2, [sp, #24]
  301fe4:	e58d301c 	str	r3, [sp, #28]
  301fe8:	e1a0000d 	mov	r0, sp
  301fec:	eb000697 	bl	303a50 <matherr>
  301ff0:	e3500000 	cmp	r0, #0
  301ff4:	0a000010 	beq	30203c <sqrt+0x114>
  301ff8:	e59d3020 	ldr	r3, [sp, #32]
  301ffc:	e3530000 	cmp	r3, #0
  302000:	1a000011 	bne	30204c <sqrt+0x124>
  302004:	e28d1018 	add	r1, sp, #24
  302008:	e8910003 	ldm	r1, {r0, r1}
  30200c:	e28dd02c 	add	sp, sp, #44	; 0x2c
  302010:	e8bd43f0 	pop	{r4, r5, r6, r7, r8, r9, lr}
  302014:	e12fff1e 	bx	lr
  302018:	e3a00000 	mov	r0, #0
  30201c:	e3a01000 	mov	r1, #0
  302020:	e1a02000 	mov	r2, r0
  302024:	e1a03001 	mov	r3, r1
  302028:	eb002c0d 	bl	30d064 <__aeabi_ddiv>
  30202c:	e3540002 	cmp	r4, #2
  302030:	e58d0018 	str	r0, [sp, #24]
  302034:	e58d101c 	str	r1, [sp, #28]
  302038:	1affffea 	bne	301fe8 <sqrt+0xc0>
  30203c:	eb0006f0 	bl	303c04 <__errno>
  302040:	e3a03021 	mov	r3, #33	; 0x21
  302044:	e5803000 	str	r3, [r0]
  302048:	eaffffea 	b	301ff8 <sqrt+0xd0>
  30204c:	eb0006ec 	bl	303c04 <__errno>
  302050:	e59d3020 	ldr	r3, [sp, #32]
  302054:	e5803000 	str	r3, [r0]
  302058:	eaffffe9 	b	302004 <sqrt+0xdc>
  30205c:	0030f000 	eorseq	pc, r0, r0
  302060:	0030e3e0 	eorseq	lr, r0, r0, ror #7
  302064:	00000000 	andeq	r0, r0, r0

00302068 <__ieee754_rem_pio2>:
  302068:	e92d4ff0 	push	{r4, r5, r6, r7, r8, r9, sl, fp, lr}
  30206c:	e59fc3ac 	ldr	ip, [pc, #940]	; 302420 <__ieee754_rem_pio2+0x3b8>
  302070:	e3c17102 	bic	r7, r1, #-2147483648	; 0x80000000
  302074:	e157000c 	cmp	r7, ip
  302078:	e24dd03c 	sub	sp, sp, #60	; 0x3c
  30207c:	e1a06001 	mov	r6, r1
  302080:	da00006f 	ble	302244 <__ieee754_rem_pio2+0x1dc>
  302084:	e1a04002 	mov	r4, r2
  302088:	e59f2394 	ldr	r2, [pc, #916]	; 302424 <__ieee754_rem_pio2+0x3bc>
  30208c:	e1570002 	cmp	r7, r2
  302090:	ca00001c 	bgt	302108 <__ieee754_rem_pio2+0xa0>
  302094:	e3510000 	cmp	r1, #0
  302098:	e28f3fd6 	add	r3, pc, #856	; 0x358
  30209c:	e893000c 	ldm	r3, {r2, r3}
  3020a0:	da000149 	ble	3025cc <__ieee754_rem_pio2+0x564>
  3020a4:	eb002a45 	bl	30c9c0 <__aeabi_dsub>
  3020a8:	e59f3378 	ldr	r3, [pc, #888]	; 302428 <__ieee754_rem_pio2+0x3c0>
  3020ac:	e1570003 	cmp	r7, r3
  3020b0:	e1a08000 	mov	r8, r0
  3020b4:	e1a09001 	mov	r9, r1
  3020b8:	0a000073 	beq	30228c <__ieee754_rem_pio2+0x224>
  3020bc:	e28f3fcf 	add	r3, pc, #828	; 0x33c
  3020c0:	e893000c 	ldm	r3, {r2, r3}
  3020c4:	eb002a3d 	bl	30c9c0 <__aeabi_dsub>
  3020c8:	e1a02000 	mov	r2, r0
  3020cc:	e1a03001 	mov	r3, r1
  3020d0:	e1a00008 	mov	r0, r8
  3020d4:	e884000c 	stm	r4, {r2, r3}
  3020d8:	e1a01009 	mov	r1, r9
  3020dc:	eb002a37 	bl	30c9c0 <__aeabi_dsub>
  3020e0:	e28f3fc6 	add	r3, pc, #792	; 0x318
  3020e4:	e893000c 	ldm	r3, {r2, r3}
  3020e8:	eb002a34 	bl	30c9c0 <__aeabi_dsub>
  3020ec:	e3a05001 	mov	r5, #1
  3020f0:	e5840008 	str	r0, [r4, #8]
  3020f4:	e584100c 	str	r1, [r4, #12]
  3020f8:	e1a00005 	mov	r0, r5
  3020fc:	e28dd03c 	add	sp, sp, #60	; 0x3c
  302100:	e8bd4ff0 	pop	{r4, r5, r6, r7, r8, r9, sl, fp, lr}
  302104:	e12fff1e 	bx	lr
  302108:	e59f231c 	ldr	r2, [pc, #796]	; 30242c <__ieee754_rem_pio2+0x3c4>
  30210c:	e1570002 	cmp	r7, r2
  302110:	da000072 	ble	3022e0 <__ieee754_rem_pio2+0x278>
  302114:	e59f2314 	ldr	r2, [pc, #788]	; 302430 <__ieee754_rem_pio2+0x3c8>
  302118:	e1570002 	cmp	r7, r2
  30211c:	ca000052 	bgt	30226c <__ieee754_rem_pio2+0x204>
  302120:	e1a05a47 	asr	r5, r7, #20
  302124:	e2455e41 	sub	r5, r5, #1040	; 0x410
  302128:	e2455006 	sub	r5, r5, #6
  30212c:	e0471a05 	sub	r1, r7, r5, lsl #20
  302130:	e1a0b001 	mov	fp, r1
  302134:	e1a0a000 	mov	sl, r0
  302138:	eb002c9d 	bl	30d3b4 <__aeabi_d2iz>
  30213c:	eb002aed 	bl	30ccf8 <__aeabi_i2d>
  302140:	e1a08000 	mov	r8, r0
  302144:	e1a09001 	mov	r9, r1
  302148:	e1a02008 	mov	r2, r8
  30214c:	e1a03009 	mov	r3, r9
  302150:	e1a0000a 	mov	r0, sl
  302154:	e1a0100b 	mov	r1, fp
  302158:	e58d8020 	str	r8, [sp, #32]
  30215c:	e58d9024 	str	r9, [sp, #36]	; 0x24
  302160:	eb002a16 	bl	30c9c0 <__aeabi_dsub>
  302164:	e3a02000 	mov	r2, #0
  302168:	e59f32c4 	ldr	r3, [pc, #708]	; 302434 <__ieee754_rem_pio2+0x3cc>
  30216c:	eb002b18 	bl	30cdd4 <__aeabi_dmul>
  302170:	e1a0b001 	mov	fp, r1
  302174:	e1a0a000 	mov	sl, r0
  302178:	eb002c8d 	bl	30d3b4 <__aeabi_d2iz>
  30217c:	eb002add 	bl	30ccf8 <__aeabi_i2d>
  302180:	e1a08000 	mov	r8, r0
  302184:	e1a09001 	mov	r9, r1
  302188:	e1a02008 	mov	r2, r8
  30218c:	e1a03009 	mov	r3, r9
  302190:	e1a0000a 	mov	r0, sl
  302194:	e1a0100b 	mov	r1, fp
  302198:	e58d8028 	str	r8, [sp, #40]	; 0x28
  30219c:	e58d902c 	str	r9, [sp, #44]	; 0x2c
  3021a0:	eb002a06 	bl	30c9c0 <__aeabi_dsub>
  3021a4:	e3a02000 	mov	r2, #0
  3021a8:	e59f3284 	ldr	r3, [pc, #644]	; 302434 <__ieee754_rem_pio2+0x3cc>
  3021ac:	eb002b08 	bl	30cdd4 <__aeabi_dmul>
  3021b0:	e3a03000 	mov	r3, #0
  3021b4:	e3a02000 	mov	r2, #0
  3021b8:	e58d0030 	str	r0, [sp, #48]	; 0x30
  3021bc:	e58d1034 	str	r1, [sp, #52]	; 0x34
  3021c0:	eb002c5d 	bl	30d33c <__aeabi_dcmpeq>
  3021c4:	e3500000 	cmp	r0, #0
  3021c8:	03a03003 	moveq	r3, #3
  3021cc:	0a000007 	beq	3021f0 <__ieee754_rem_pio2+0x188>
  3021d0:	e3a03000 	mov	r3, #0
  3021d4:	e1a00008 	mov	r0, r8
  3021d8:	e1a01009 	mov	r1, r9
  3021dc:	e3a02000 	mov	r2, #0
  3021e0:	eb002c55 	bl	30d33c <__aeabi_dcmpeq>
  3021e4:	e3500000 	cmp	r0, #0
  3021e8:	13a03001 	movne	r3, #1
  3021ec:	03a03002 	moveq	r3, #2
  3021f0:	e3a0c002 	mov	ip, #2
  3021f4:	e59f123c 	ldr	r1, [pc, #572]	; 302438 <__ieee754_rem_pio2+0x3d0>
  3021f8:	e1a02005 	mov	r2, r5
  3021fc:	e58d1004 	str	r1, [sp, #4]
  302200:	e58dc000 	str	ip, [sp]
  302204:	e28d0020 	add	r0, sp, #32
  302208:	e1a01004 	mov	r1, r4
  30220c:	eb000283 	bl	302c20 <__kernel_rem_pio2>
  302210:	e3560000 	cmp	r6, #0
  302214:	a1a05000 	movge	r5, r0
  302218:	b2605000 	rsblt	r5, r0, #0
  30221c:	e1a00005 	mov	r0, r5
  302220:	b5942004 	ldrlt	r2, [r4, #4]
  302224:	b594300c 	ldrlt	r3, [r4, #12]
  302228:	b2822102 	addlt	r2, r2, #-2147483648	; 0x80000000
  30222c:	b2833102 	addlt	r3, r3, #-2147483648	; 0x80000000
  302230:	b5842004 	strlt	r2, [r4, #4]
  302234:	b584300c 	strlt	r3, [r4, #12]
  302238:	e28dd03c 	add	sp, sp, #60	; 0x3c
  30223c:	e8bd4ff0 	pop	{r4, r5, r6, r7, r8, r9, sl, fp, lr}
  302240:	e12fff1e 	bx	lr
  302244:	e3a05000 	mov	r5, #0
  302248:	e3a04000 	mov	r4, #0
  30224c:	e5824008 	str	r4, [r2, #8]
  302250:	e582500c 	str	r5, [r2, #12]
  302254:	e3a05000 	mov	r5, #0
  302258:	e8820003 	stm	r2, {r0, r1}
  30225c:	e1a00005 	mov	r0, r5
  302260:	e28dd03c 	add	sp, sp, #60	; 0x3c
  302264:	e8bd4ff0 	pop	{r4, r5, r6, r7, r8, r9, sl, fp, lr}
  302268:	e12fff1e 	bx	lr
  30226c:	e1a02000 	mov	r2, r0
  302270:	e1a03001 	mov	r3, r1
  302274:	eb0029d1 	bl	30c9c0 <__aeabi_dsub>
  302278:	e3a05000 	mov	r5, #0
  30227c:	e5840008 	str	r0, [r4, #8]
  302280:	e584100c 	str	r1, [r4, #12]
  302284:	e8840003 	stm	r4, {r0, r1}
  302288:	eafffff3 	b	30225c <__ieee754_rem_pio2+0x1f4>
  30228c:	e28f3f5d 	add	r3, pc, #372	; 0x174
  302290:	e893000c 	ldm	r3, {r2, r3}
  302294:	eb0029c9 	bl	30c9c0 <__aeabi_dsub>
  302298:	e28f3e17 	add	r3, pc, #368	; 0x170
  30229c:	e893000c 	ldm	r3, {r2, r3}
  3022a0:	e1a06000 	mov	r6, r0
  3022a4:	e1a07001 	mov	r7, r1
  3022a8:	eb0029c4 	bl	30c9c0 <__aeabi_dsub>
  3022ac:	e1a02000 	mov	r2, r0
  3022b0:	e1a03001 	mov	r3, r1
  3022b4:	e1a00006 	mov	r0, r6
  3022b8:	e884000c 	stm	r4, {r2, r3}
  3022bc:	e1a01007 	mov	r1, r7
  3022c0:	eb0029be 	bl	30c9c0 <__aeabi_dsub>
  3022c4:	e28f3f51 	add	r3, pc, #324	; 0x144
  3022c8:	e893000c 	ldm	r3, {r2, r3}
  3022cc:	eb0029bb 	bl	30c9c0 <__aeabi_dsub>
  3022d0:	e3a05001 	mov	r5, #1
  3022d4:	e5840008 	str	r0, [r4, #8]
  3022d8:	e584100c 	str	r1, [r4, #12]
  3022dc:	eaffffde 	b	30225c <__ieee754_rem_pio2+0x1f4>
  3022e0:	eb0005bd 	bl	3039dc <fabs>
  3022e4:	e28f3f4b 	add	r3, pc, #300	; 0x12c
  3022e8:	e893000c 	ldm	r3, {r2, r3}
  3022ec:	e1a08000 	mov	r8, r0
  3022f0:	e1a09001 	mov	r9, r1
  3022f4:	eb002ab6 	bl	30cdd4 <__aeabi_dmul>
  3022f8:	e3a02000 	mov	r2, #0
  3022fc:	e59f3138 	ldr	r3, [pc, #312]	; 30243c <__ieee754_rem_pio2+0x3d4>
  302300:	eb0029af 	bl	30c9c4 <__adddf3>
  302304:	eb002c2a 	bl	30d3b4 <__aeabi_d2iz>
  302308:	e1a05000 	mov	r5, r0
  30230c:	eb002a79 	bl	30ccf8 <__aeabi_i2d>
  302310:	e28f30e0 	add	r3, pc, #224	; 0xe0
  302314:	e893000c 	ldm	r3, {r2, r3}
  302318:	e58d0010 	str	r0, [sp, #16]
  30231c:	e58d1014 	str	r1, [sp, #20]
  302320:	eb002aab 	bl	30cdd4 <__aeabi_dmul>
  302324:	e1a02000 	mov	r2, r0
  302328:	e1a03001 	mov	r3, r1
  30232c:	e1a00008 	mov	r0, r8
  302330:	e1a01009 	mov	r1, r9
  302334:	eb0029a1 	bl	30c9c0 <__aeabi_dsub>
  302338:	e28f30c0 	add	r3, pc, #192	; 0xc0
  30233c:	e893000c 	ldm	r3, {r2, r3}
  302340:	e1a0a000 	mov	sl, r0
  302344:	e1a0b001 	mov	fp, r1
  302348:	e28d1010 	add	r1, sp, #16
  30234c:	e8910003 	ldm	r1, {r0, r1}
  302350:	eb002a9f 	bl	30cdd4 <__aeabi_dmul>
  302354:	e355001f 	cmp	r5, #31
  302358:	e58d0008 	str	r0, [sp, #8]
  30235c:	e58d100c 	str	r1, [sp, #12]
  302360:	e1a0000a 	mov	r0, sl
  302364:	e1a0100b 	mov	r1, fp
  302368:	ca000035 	bgt	302444 <__ieee754_rem_pio2+0x3dc>
  30236c:	e59f30cc 	ldr	r3, [pc, #204]	; 302440 <__ieee754_rem_pio2+0x3d8>
  302370:	e2452001 	sub	r2, r5, #1
  302374:	e7933102 	ldr	r3, [r3, r2, lsl #2]
  302378:	e1530007 	cmp	r3, r7
  30237c:	0a000030 	beq	302444 <__ieee754_rem_pio2+0x3dc>
  302380:	e28d3008 	add	r3, sp, #8
  302384:	e893000c 	ldm	r3, {r2, r3}
  302388:	eb00298c 	bl	30c9c0 <__aeabi_dsub>
  30238c:	e1a02000 	mov	r2, r0
  302390:	e1a03001 	mov	r3, r1
  302394:	e1a09000 	mov	r9, r0
  302398:	e1a08001 	mov	r8, r1
  30239c:	e884000c 	stm	r4, {r2, r3}
  3023a0:	e1a02009 	mov	r2, r9
  3023a4:	e1a03008 	mov	r3, r8
  3023a8:	e1a0000a 	mov	r0, sl
  3023ac:	e1a0100b 	mov	r1, fp
  3023b0:	eb002982 	bl	30c9c0 <__aeabi_dsub>
  3023b4:	e28d3008 	add	r3, sp, #8
  3023b8:	e893000c 	ldm	r3, {r2, r3}
  3023bc:	eb00297f 	bl	30c9c0 <__aeabi_dsub>
  3023c0:	e1a02000 	mov	r2, r0
  3023c4:	e1a03001 	mov	r3, r1
  3023c8:	e3560000 	cmp	r6, #0
  3023cc:	e5842008 	str	r2, [r4, #8]
  3023d0:	e584300c 	str	r3, [r4, #12]
  3023d4:	aaffffa0 	bge	30225c <__ieee754_rem_pio2+0x1f4>
  3023d8:	e2888102 	add	r8, r8, #-2147483648	; 0x80000000
  3023dc:	e2811102 	add	r1, r1, #-2147483648	; 0x80000000
  3023e0:	e5849000 	str	r9, [r4]
  3023e4:	e5848004 	str	r8, [r4, #4]
  3023e8:	e584100c 	str	r1, [r4, #12]
  3023ec:	e5840008 	str	r0, [r4, #8]
  3023f0:	e2655000 	rsb	r5, r5, #0
  3023f4:	eaffff98 	b	30225c <__ieee754_rem_pio2+0x1f4>
  3023f8:	54400000 	strbpl	r0, [r0], #-0
  3023fc:	3ff921fb 	svccc	0x00f921fb
  302400:	1a626331 	bne	1b9b0cc <__bss_end+0x18870cc>
  302404:	3dd0b461 	cfldrdcc	mvd11, [r0, #388]	; 0x184
  302408:	1a600000 	bne	1b02410 <__bss_end+0x17ee410>
  30240c:	3dd0b461 	cfldrdcc	mvd11, [r0, #388]	; 0x184
  302410:	2e037073 	mcrcs	0, 0, r7, cr3, cr3, {3}
  302414:	3ba3198a 	blcc	febc8a44 <__bss_end+0xfe8b4a44>
  302418:	6dc9c883 	stclvs	8, cr12, [r9, #524]	; 0x20c
  30241c:	3fe45f30 	svccc	0x00e45f30
  302420:	3fe921fb 	svccc	0x00e921fb
  302424:	4002d97b 	andmi	sp, r2, fp, ror r9
  302428:	3ff921fb 	svccc	0x00f921fb
  30242c:	413921fb 			; <UNDEFINED> instruction: 0x413921fb
  302430:	7fefffff 	svcvc	0x00efffff
  302434:	41700000 	cmnmi	r0, r0
  302438:	0030e080 	eorseq	lr, r0, r0, lsl #1
  30243c:	3fe00000 	svccc	0x00e00000
  302440:	0030e000 	eorseq	lr, r0, r0
  302444:	e28d3008 	add	r3, sp, #8
  302448:	e893000c 	ldm	r3, {r2, r3}
  30244c:	eb00295b 	bl	30c9c0 <__aeabi_dsub>
  302450:	e1a03001 	mov	r3, r1
  302454:	e1a02000 	mov	r2, r0
  302458:	e1a08001 	mov	r8, r1
  30245c:	e1a07a47 	asr	r7, r7, #20
  302460:	e1a01081 	lsl	r1, r1, #1
  302464:	e0471aa1 	sub	r1, r7, r1, lsr #21
  302468:	e3510010 	cmp	r1, #16
  30246c:	e1a09000 	mov	r9, r0
  302470:	e884000c 	stm	r4, {r2, r3}
  302474:	daffffc9 	ble	3023a0 <__ieee754_rem_pio2+0x338>
  302478:	e28f3f82 	add	r3, pc, #520	; 0x208
  30247c:	e893000c 	ldm	r3, {r2, r3}
  302480:	e28d1010 	add	r1, sp, #16
  302484:	e8910003 	ldm	r1, {r0, r1}
  302488:	eb002a51 	bl	30cdd4 <__aeabi_dmul>
  30248c:	e1a08000 	mov	r8, r0
  302490:	e1a09001 	mov	r9, r1
  302494:	e1a02008 	mov	r2, r8
  302498:	e1a03009 	mov	r3, r9
  30249c:	e1a0000a 	mov	r0, sl
  3024a0:	e1a0100b 	mov	r1, fp
  3024a4:	eb002945 	bl	30c9c0 <__aeabi_dsub>
  3024a8:	e58d0018 	str	r0, [sp, #24]
  3024ac:	e58d101c 	str	r1, [sp, #28]
  3024b0:	e28d3018 	add	r3, sp, #24
  3024b4:	e893000c 	ldm	r3, {r2, r3}
  3024b8:	e1a0000a 	mov	r0, sl
  3024bc:	e1a0100b 	mov	r1, fp
  3024c0:	eb00293e 	bl	30c9c0 <__aeabi_dsub>
  3024c4:	e1a02008 	mov	r2, r8
  3024c8:	e1a03009 	mov	r3, r9
  3024cc:	eb00293b 	bl	30c9c0 <__aeabi_dsub>
  3024d0:	e1a08000 	mov	r8, r0
  3024d4:	e1a09001 	mov	r9, r1
  3024d8:	e28f3e1b 	add	r3, pc, #432	; 0x1b0
  3024dc:	e893000c 	ldm	r3, {r2, r3}
  3024e0:	e28d1010 	add	r1, sp, #16
  3024e4:	e8910003 	ldm	r1, {r0, r1}
  3024e8:	eb002a39 	bl	30cdd4 <__aeabi_dmul>
  3024ec:	e1a02008 	mov	r2, r8
  3024f0:	e1a03009 	mov	r3, r9
  3024f4:	eb002931 	bl	30c9c0 <__aeabi_dsub>
  3024f8:	e58d0008 	str	r0, [sp, #8]
  3024fc:	e58d100c 	str	r1, [sp, #12]
  302500:	e28d3008 	add	r3, sp, #8
  302504:	e893000c 	ldm	r3, {r2, r3}
  302508:	e28d1018 	add	r1, sp, #24
  30250c:	e8910003 	ldm	r1, {r0, r1}
  302510:	eb00292a 	bl	30c9c0 <__aeabi_dsub>
  302514:	e1a03001 	mov	r3, r1
  302518:	e1a02000 	mov	r2, r0
  30251c:	e1a08001 	mov	r8, r1
  302520:	e1a01081 	lsl	r1, r1, #1
  302524:	e0477aa1 	sub	r7, r7, r1, lsr #21
  302528:	e3570031 	cmp	r7, #49	; 0x31
  30252c:	e1a09000 	mov	r9, r0
  302530:	e884000c 	stm	r4, {r2, r3}
  302534:	da00004f 	ble	302678 <__ieee754_rem_pio2+0x610>
  302538:	e3a0242e 	mov	r2, #771751936	; 0x2e000000
  30253c:	e59f3164 	ldr	r3, [pc, #356]	; 3026a8 <__ieee754_rem_pio2+0x640>
  302540:	e28d1010 	add	r1, sp, #16
  302544:	e8910003 	ldm	r1, {r0, r1}
  302548:	eb002a21 	bl	30cdd4 <__aeabi_dmul>
  30254c:	e1a08000 	mov	r8, r0
  302550:	e1a09001 	mov	r9, r1
  302554:	e1a02008 	mov	r2, r8
  302558:	e1a03009 	mov	r3, r9
  30255c:	e28d1018 	add	r1, sp, #24
  302560:	e8910003 	ldm	r1, {r0, r1}
  302564:	eb002915 	bl	30c9c0 <__aeabi_dsub>
  302568:	e1a0a000 	mov	sl, r0
  30256c:	e1a0b001 	mov	fp, r1
  302570:	e1a0200a 	mov	r2, sl
  302574:	e1a0300b 	mov	r3, fp
  302578:	e28d1018 	add	r1, sp, #24
  30257c:	e8910003 	ldm	r1, {r0, r1}
  302580:	eb00290e 	bl	30c9c0 <__aeabi_dsub>
  302584:	e1a02008 	mov	r2, r8
  302588:	e1a03009 	mov	r3, r9
  30258c:	eb00290b 	bl	30c9c0 <__aeabi_dsub>
  302590:	e1a08000 	mov	r8, r0
  302594:	e1a09001 	mov	r9, r1
  302598:	e28f30f8 	add	r3, pc, #248	; 0xf8
  30259c:	e893000c 	ldm	r3, {r2, r3}
  3025a0:	e28d1010 	add	r1, sp, #16
  3025a4:	e8910003 	ldm	r1, {r0, r1}
  3025a8:	eb002a09 	bl	30cdd4 <__aeabi_dmul>
  3025ac:	e1a02008 	mov	r2, r8
  3025b0:	e1a03009 	mov	r3, r9
  3025b4:	eb002901 	bl	30c9c0 <__aeabi_dsub>
  3025b8:	e58d0008 	str	r0, [sp, #8]
  3025bc:	e58d100c 	str	r1, [sp, #12]
  3025c0:	e1a0000a 	mov	r0, sl
  3025c4:	e1a0100b 	mov	r1, fp
  3025c8:	eaffff6c 	b	302380 <__ieee754_rem_pio2+0x318>
  3025cc:	eb0028fc 	bl	30c9c4 <__adddf3>
  3025d0:	e59f30d4 	ldr	r3, [pc, #212]	; 3026ac <__ieee754_rem_pio2+0x644>
  3025d4:	e1570003 	cmp	r7, r3
  3025d8:	e1a08000 	mov	r8, r0
  3025dc:	e1a09001 	mov	r9, r1
  3025e0:	0a00000f 	beq	302624 <__ieee754_rem_pio2+0x5bc>
  3025e4:	e28f30b4 	add	r3, pc, #180	; 0xb4
  3025e8:	e893000c 	ldm	r3, {r2, r3}
  3025ec:	eb0028f4 	bl	30c9c4 <__adddf3>
  3025f0:	e1a02000 	mov	r2, r0
  3025f4:	e1a03001 	mov	r3, r1
  3025f8:	e1a00008 	mov	r0, r8
  3025fc:	e884000c 	stm	r4, {r2, r3}
  302600:	e1a01009 	mov	r1, r9
  302604:	eb0028ed 	bl	30c9c0 <__aeabi_dsub>
  302608:	e28f3090 	add	r3, pc, #144	; 0x90
  30260c:	e893000c 	ldm	r3, {r2, r3}
  302610:	eb0028eb 	bl	30c9c4 <__adddf3>
  302614:	e3e05000 	mvn	r5, #0
  302618:	e5840008 	str	r0, [r4, #8]
  30261c:	e584100c 	str	r1, [r4, #12]
  302620:	eaffff0d 	b	30225c <__ieee754_rem_pio2+0x1f4>
  302624:	e28f305c 	add	r3, pc, #92	; 0x5c
  302628:	e893000c 	ldm	r3, {r2, r3}
  30262c:	eb0028e4 	bl	30c9c4 <__adddf3>
  302630:	e28f3058 	add	r3, pc, #88	; 0x58
  302634:	e893000c 	ldm	r3, {r2, r3}
  302638:	e1a06000 	mov	r6, r0
  30263c:	e1a07001 	mov	r7, r1
  302640:	eb0028df 	bl	30c9c4 <__adddf3>
  302644:	e1a02000 	mov	r2, r0
  302648:	e1a03001 	mov	r3, r1
  30264c:	e1a00006 	mov	r0, r6
  302650:	e884000c 	stm	r4, {r2, r3}
  302654:	e1a01007 	mov	r1, r7
  302658:	eb0028d8 	bl	30c9c0 <__aeabi_dsub>
  30265c:	e28f302c 	add	r3, pc, #44	; 0x2c
  302660:	e893000c 	ldm	r3, {r2, r3}
  302664:	eb0028d6 	bl	30c9c4 <__adddf3>
  302668:	e3e05000 	mvn	r5, #0
  30266c:	e5840008 	str	r0, [r4, #8]
  302670:	e584100c 	str	r1, [r4, #12]
  302674:	eafffef8 	b	30225c <__ieee754_rem_pio2+0x1f4>
  302678:	e28db018 	add	fp, sp, #24
  30267c:	e89b0c00 	ldm	fp, {sl, fp}
  302680:	eaffff46 	b	3023a0 <__ieee754_rem_pio2+0x338>
  302684:	e1a00000 	nop			; (mov r0, r0)
  302688:	1a600000 	bne	1b02690 <__bss_end+0x17ee690>
  30268c:	3dd0b461 	cfldrdcc	mvd11, [r0, #388]	; 0x184
  302690:	2e037073 	mcrcs	0, 0, r7, cr3, cr3, {3}
  302694:	3ba3198a 	blcc	febc8cc4 <__bss_end+0xfe8b4cc4>
  302698:	252049c1 	strcs	r4, [r0, #-2497]!	; 0x9c1
  30269c:	397b839a 	ldmdbcc	fp!, {r1, r3, r4, r7, r8, r9, pc}^
  3026a0:	1a626331 	bne	1b9b36c <__bss_end+0x188736c>
  3026a4:	3dd0b461 	cfldrdcc	mvd11, [r0, #388]	; 0x184
  3026a8:	3ba3198a 	blcc	febc8cd8 <__bss_end+0xfe8b4cd8>
  3026ac:	3ff921fb 	svccc	0x00f921fb

003026b0 <__ieee754_sqrt>:
  3026b0:	e59f2214 	ldr	r2, [pc, #532]	; 3028cc <__ieee754_sqrt+0x21c>
  3026b4:	e92d43f8 	push	{r3, r4, r5, r6, r7, r8, r9, lr}
  3026b8:	e1a0e002 	mov	lr, r2
  3026bc:	e0022001 	and	r2, r2, r1
  3026c0:	e152000e 	cmp	r2, lr
  3026c4:	e1a04001 	mov	r4, r1
  3026c8:	e1a05000 	mov	r5, r0
  3026cc:	e1a03001 	mov	r3, r1
  3026d0:	0a00006a 	beq	302880 <__ieee754_sqrt+0x1d0>
  3026d4:	e3510000 	cmp	r1, #0
  3026d8:	e1a0c000 	mov	ip, r0
  3026dc:	e1a02000 	mov	r2, r0
  3026e0:	da00004e 	ble	302820 <__ieee754_sqrt+0x170>
  3026e4:	e1b06a41 	asrs	r6, r1, #20
  3026e8:	0a000059 	beq	302854 <__ieee754_sqrt+0x1a4>
  3026ec:	e3a05000 	mov	r5, #0
  3026f0:	e3c334ff 	bic	r3, r3, #-16777216	; 0xff000000
  3026f4:	e3160001 	tst	r6, #1
  3026f8:	e3c3360f 	bic	r3, r3, #15728640	; 0xf00000
  3026fc:	01a01fa2 	lsreq	r1, r2, #31
  302700:	e3833601 	orr	r3, r3, #1048576	; 0x100000
  302704:	00813083 	addeq	r3, r1, r3, lsl #1
  302708:	e3a00016 	mov	r0, #22
  30270c:	e1a0c005 	mov	ip, r5
  302710:	e3a01602 	mov	r1, #2097152	; 0x200000
  302714:	01a02082 	lsleq	r2, r2, #1
  302718:	e2466fff 	sub	r6, r6, #1020	; 0x3fc
  30271c:	e1a0efa2 	lsr	lr, r2, #31
  302720:	e2466003 	sub	r6, r6, #3
  302724:	e1a060c6 	asr	r6, r6, #1
  302728:	e08e3083 	add	r3, lr, r3, lsl #1
  30272c:	e1a02082 	lsl	r2, r2, #1
  302730:	e08ce001 	add	lr, ip, r1
  302734:	e15e0003 	cmp	lr, r3
  302738:	e1a04fa2 	lsr	r4, r2, #31
  30273c:	d06e3003 	rsble	r3, lr, r3
  302740:	d08ec001 	addle	ip, lr, r1
  302744:	d0855001 	addle	r5, r5, r1
  302748:	e2500001 	subs	r0, r0, #1
  30274c:	e0843083 	add	r3, r4, r3, lsl #1
  302750:	e1a02082 	lsl	r2, r2, #1
  302754:	e1a010a1 	lsr	r1, r1, #1
  302758:	1afffff4 	bne	302730 <__ieee754_sqrt+0x80>
  30275c:	e3a04020 	mov	r4, #32
  302760:	e1a07000 	mov	r7, r0
  302764:	e3a01102 	mov	r1, #-2147483648	; 0x80000000
  302768:	ea00000c 	b	3027a0 <__ieee754_sqrt+0xf0>
  30276c:	e1a0800c 	mov	r8, ip
  302770:	e06c3003 	rsb	r3, ip, r3
  302774:	e1a0c008 	mov	ip, r8
  302778:	e15e0002 	cmp	lr, r2
  30277c:	82433001 	subhi	r3, r3, #1
  302780:	e06e2002 	rsb	r2, lr, r2
  302784:	e0800001 	add	r0, r0, r1
  302788:	e1a0efa2 	lsr	lr, r2, #31
  30278c:	e2544001 	subs	r4, r4, #1
  302790:	e1a010a1 	lsr	r1, r1, #1
  302794:	e08e3083 	add	r3, lr, r3, lsl #1
  302798:	e1a02082 	lsl	r2, r2, #1
  30279c:	0a00000c 	beq	3027d4 <__ieee754_sqrt+0x124>
  3027a0:	e153000c 	cmp	r3, ip
  3027a4:	e081e007 	add	lr, r1, r7
  3027a8:	ca000002 	bgt	3027b8 <__ieee754_sqrt+0x108>
  3027ac:	e15e0002 	cmp	lr, r2
  3027b0:	9153000c 	cmpls	r3, ip
  3027b4:	1afffff3 	bne	302788 <__ieee754_sqrt+0xd8>
  3027b8:	e35e0000 	cmp	lr, #0
  3027bc:	e08e7001 	add	r7, lr, r1
  3027c0:	aaffffe9 	bge	30276c <__ieee754_sqrt+0xbc>
  3027c4:	e3570000 	cmp	r7, #0
  3027c8:	a28c8001 	addge	r8, ip, #1
  3027cc:	aaffffe7 	bge	302770 <__ieee754_sqrt+0xc0>
  3027d0:	eaffffe5 	b	30276c <__ieee754_sqrt+0xbc>
  3027d4:	e1933002 	orrs	r3, r3, r2
  3027d8:	1a000009 	bne	302804 <__ieee754_sqrt+0x154>
  3027dc:	e1a000a0 	lsr	r0, r0, #1
  3027e0:	e1a030c5 	asr	r3, r5, #1
  3027e4:	e28335ff 	add	r3, r3, #1069547520	; 0x3fc00000
  3027e8:	e2833602 	add	r3, r3, #2097152	; 0x200000
  3027ec:	e0839a06 	add	r9, r3, r6, lsl #20
  3027f0:	e1a01009 	mov	r1, r9
  3027f4:	e3150001 	tst	r5, #1
  3027f8:	13800102 	orrne	r0, r0, #-2147483648	; 0x80000000
  3027fc:	e8bd43f8 	pop	{r3, r4, r5, r6, r7, r8, r9, lr}
  302800:	e12fff1e 	bx	lr
  302804:	e3700001 	cmn	r0, #1
  302808:	02855001 	addeq	r5, r5, #1
  30280c:	01a00004 	moveq	r0, r4
  302810:	0afffff2 	beq	3027e0 <__ieee754_sqrt+0x130>
  302814:	e2003001 	and	r3, r0, #1
  302818:	e0830000 	add	r0, r3, r0
  30281c:	eaffffee 	b	3027dc <__ieee754_sqrt+0x12c>
  302820:	e3c1e102 	bic	lr, r1, #-2147483648	; 0x80000000
  302824:	e19ec00c 	orrs	ip, lr, ip
  302828:	0afffff3 	beq	3027fc <__ieee754_sqrt+0x14c>
  30282c:	e3540000 	cmp	r4, #0
  302830:	01a06004 	moveq	r6, r4
  302834:	1a00001d 	bne	3028b0 <__ieee754_sqrt+0x200>
  302838:	e1a035a2 	lsr	r3, r2, #11
  30283c:	e3530000 	cmp	r3, #0
  302840:	e2466015 	sub	r6, r6, #21
  302844:	e1a02a82 	lsl	r2, r2, #21
  302848:	0afffffa 	beq	302838 <__ieee754_sqrt+0x188>
  30284c:	e3130601 	tst	r3, #1048576	; 0x100000
  302850:	1a000012 	bne	3028a0 <__ieee754_sqrt+0x1f0>
  302854:	e3a01000 	mov	r1, #0
  302858:	e1a03083 	lsl	r3, r3, #1
  30285c:	e3130601 	tst	r3, #1048576	; 0x100000
  302860:	e2811001 	add	r1, r1, #1
  302864:	0afffffb 	beq	302858 <__ieee754_sqrt+0x1a8>
  302868:	e2610001 	rsb	r0, r1, #1
  30286c:	e261c020 	rsb	ip, r1, #32
  302870:	e1833c32 	orr	r3, r3, r2, lsr ip
  302874:	e0866000 	add	r6, r6, r0
  302878:	e1a02112 	lsl	r2, r2, r1
  30287c:	eaffff9a 	b	3026ec <__ieee754_sqrt+0x3c>
  302880:	e1a02000 	mov	r2, r0
  302884:	e1a03001 	mov	r3, r1
  302888:	eb002951 	bl	30cdd4 <__aeabi_dmul>
  30288c:	e1a02005 	mov	r2, r5
  302890:	e1a03004 	mov	r3, r4
  302894:	eb00284a 	bl	30c9c4 <__adddf3>
  302898:	e8bd43f8 	pop	{r3, r4, r5, r6, r7, r8, r9, lr}
  30289c:	e12fff1e 	bx	lr
  3028a0:	e3a0c020 	mov	ip, #32
  3028a4:	e3a00001 	mov	r0, #1
  3028a8:	e3a01000 	mov	r1, #0
  3028ac:	eaffffef 	b	302870 <__ieee754_sqrt+0x1c0>
  3028b0:	e1a02005 	mov	r2, r5
  3028b4:	e1a03004 	mov	r3, r4
  3028b8:	eb002840 	bl	30c9c0 <__aeabi_dsub>
  3028bc:	e1a02000 	mov	r2, r0
  3028c0:	e1a03001 	mov	r3, r1
  3028c4:	eb0029e6 	bl	30d064 <__aeabi_ddiv>
  3028c8:	eaffffcb 	b	3027fc <__ieee754_sqrt+0x14c>
  3028cc:	7ff00000 	svcvc	0x00f00000	; IMB

003028d0 <__kernel_cos>:
  3028d0:	e92d4ff0 	push	{r4, r5, r6, r7, r8, r9, sl, fp, lr}
  3028d4:	e3c17102 	bic	r7, r1, #-2147483648	; 0x80000000
  3028d8:	e35705f9 	cmp	r7, #1044381696	; 0x3e400000
  3028dc:	e24dd014 	sub	sp, sp, #20
  3028e0:	e1a04001 	mov	r4, r1
  3028e4:	e1a0a002 	mov	sl, r2
  3028e8:	e1a0b003 	mov	fp, r3
  3028ec:	e1a05000 	mov	r5, r0
  3028f0:	aa00004f 	bge	302a34 <__kernel_cos+0x164>
  3028f4:	eb002aae 	bl	30d3b4 <__aeabi_d2iz>
  3028f8:	e3500000 	cmp	r0, #0
  3028fc:	0a0000af 	beq	302bc0 <__kernel_cos+0x2f0>
  302900:	e1a02005 	mov	r2, r5
  302904:	e1a03004 	mov	r3, r4
  302908:	e1a00005 	mov	r0, r5
  30290c:	e1a01004 	mov	r1, r4
  302910:	eb00292f 	bl	30cdd4 <__aeabi_dmul>
  302914:	e1a08000 	mov	r8, r0
  302918:	e1a09001 	mov	r9, r1
  30291c:	e28f3fad 	add	r3, pc, #692	; 0x2b4
  302920:	e893000c 	ldm	r3, {r2, r3}
  302924:	eb00292a 	bl	30cdd4 <__aeabi_dmul>
  302928:	e28f3e2b 	add	r3, pc, #688	; 0x2b0
  30292c:	e893000c 	ldm	r3, {r2, r3}
  302930:	eb002823 	bl	30c9c4 <__adddf3>
  302934:	e1a02008 	mov	r2, r8
  302938:	e1a03009 	mov	r3, r9
  30293c:	eb002924 	bl	30cdd4 <__aeabi_dmul>
  302940:	e28f3e2a 	add	r3, pc, #672	; 0x2a0
  302944:	e893000c 	ldm	r3, {r2, r3}
  302948:	eb00281c 	bl	30c9c0 <__aeabi_dsub>
  30294c:	e1a02008 	mov	r2, r8
  302950:	e1a03009 	mov	r3, r9
  302954:	eb00291e 	bl	30cdd4 <__aeabi_dmul>
  302958:	e28f3e29 	add	r3, pc, #656	; 0x290
  30295c:	e893000c 	ldm	r3, {r2, r3}
  302960:	eb002817 	bl	30c9c4 <__adddf3>
  302964:	e1a02008 	mov	r2, r8
  302968:	e1a03009 	mov	r3, r9
  30296c:	eb002918 	bl	30cdd4 <__aeabi_dmul>
  302970:	e28f3d0a 	add	r3, pc, #640	; 0x280
  302974:	e893000c 	ldm	r3, {r2, r3}
  302978:	eb002810 	bl	30c9c0 <__aeabi_dsub>
  30297c:	e1a02008 	mov	r2, r8
  302980:	e1a03009 	mov	r3, r9
  302984:	eb002912 	bl	30cdd4 <__aeabi_dmul>
  302988:	e28f3e27 	add	r3, pc, #624	; 0x270
  30298c:	e893000c 	ldm	r3, {r2, r3}
  302990:	eb00280b 	bl	30c9c4 <__adddf3>
  302994:	e1a02008 	mov	r2, r8
  302998:	e1a03009 	mov	r3, r9
  30299c:	eb00290c 	bl	30cdd4 <__aeabi_dmul>
  3029a0:	e88d0003 	stm	sp, {r0, r1}
  3029a4:	e1a00008 	mov	r0, r8
  3029a8:	e1a01009 	mov	r1, r9
  3029ac:	e3a02000 	mov	r2, #0
  3029b0:	e59f3250 	ldr	r3, [pc, #592]	; 302c08 <__kernel_cos+0x338>
  3029b4:	eb002906 	bl	30cdd4 <__aeabi_dmul>
  3029b8:	e89d000c 	ldm	sp, {r2, r3}
  3029bc:	e1a06000 	mov	r6, r0
  3029c0:	e1a07001 	mov	r7, r1
  3029c4:	e1a00008 	mov	r0, r8
  3029c8:	e1a01009 	mov	r1, r9
  3029cc:	eb002900 	bl	30cdd4 <__aeabi_dmul>
  3029d0:	e1a0200a 	mov	r2, sl
  3029d4:	e1a08000 	mov	r8, r0
  3029d8:	e1a09001 	mov	r9, r1
  3029dc:	e1a0300b 	mov	r3, fp
  3029e0:	e1a00005 	mov	r0, r5
  3029e4:	e1a01004 	mov	r1, r4
  3029e8:	eb0028f9 	bl	30cdd4 <__aeabi_dmul>
  3029ec:	e1a02000 	mov	r2, r0
  3029f0:	e1a03001 	mov	r3, r1
  3029f4:	e1a00008 	mov	r0, r8
  3029f8:	e1a01009 	mov	r1, r9
  3029fc:	eb0027ef 	bl	30c9c0 <__aeabi_dsub>
  302a00:	e1a02000 	mov	r2, r0
  302a04:	e1a03001 	mov	r3, r1
  302a08:	e1a00006 	mov	r0, r6
  302a0c:	e1a01007 	mov	r1, r7
  302a10:	eb0027ea 	bl	30c9c0 <__aeabi_dsub>
  302a14:	e1a02000 	mov	r2, r0
  302a18:	e1a03001 	mov	r3, r1
  302a1c:	e3a00000 	mov	r0, #0
  302a20:	e59f11e4 	ldr	r1, [pc, #484]	; 302c0c <__kernel_cos+0x33c>
  302a24:	eb0027e5 	bl	30c9c0 <__aeabi_dsub>
  302a28:	e28dd014 	add	sp, sp, #20
  302a2c:	e8bd4ff0 	pop	{r4, r5, r6, r7, r8, r9, sl, fp, lr}
  302a30:	e12fff1e 	bx	lr
  302a34:	e1a02000 	mov	r2, r0
  302a38:	e1a03001 	mov	r3, r1
  302a3c:	eb0028e4 	bl	30cdd4 <__aeabi_dmul>
  302a40:	e1a08000 	mov	r8, r0
  302a44:	e1a09001 	mov	r9, r1
  302a48:	e28f3f62 	add	r3, pc, #392	; 0x188
  302a4c:	e893000c 	ldm	r3, {r2, r3}
  302a50:	eb0028df 	bl	30cdd4 <__aeabi_dmul>
  302a54:	e28f3f61 	add	r3, pc, #388	; 0x184
  302a58:	e893000c 	ldm	r3, {r2, r3}
  302a5c:	eb0027d8 	bl	30c9c4 <__adddf3>
  302a60:	e1a02008 	mov	r2, r8
  302a64:	e1a03009 	mov	r3, r9
  302a68:	eb0028d9 	bl	30cdd4 <__aeabi_dmul>
  302a6c:	e28f3f5d 	add	r3, pc, #372	; 0x174
  302a70:	e893000c 	ldm	r3, {r2, r3}
  302a74:	eb0027d1 	bl	30c9c0 <__aeabi_dsub>
  302a78:	e1a02008 	mov	r2, r8
  302a7c:	e1a03009 	mov	r3, r9
  302a80:	eb0028d3 	bl	30cdd4 <__aeabi_dmul>
  302a84:	e28f3f59 	add	r3, pc, #356	; 0x164
  302a88:	e893000c 	ldm	r3, {r2, r3}
  302a8c:	eb0027cc 	bl	30c9c4 <__adddf3>
  302a90:	e1a02008 	mov	r2, r8
  302a94:	e1a03009 	mov	r3, r9
  302a98:	eb0028cd 	bl	30cdd4 <__aeabi_dmul>
  302a9c:	e28f3f55 	add	r3, pc, #340	; 0x154
  302aa0:	e893000c 	ldm	r3, {r2, r3}
  302aa4:	eb0027c5 	bl	30c9c0 <__aeabi_dsub>
  302aa8:	e1a02008 	mov	r2, r8
  302aac:	e1a03009 	mov	r3, r9
  302ab0:	eb0028c7 	bl	30cdd4 <__aeabi_dmul>
  302ab4:	e28f3f51 	add	r3, pc, #324	; 0x144
  302ab8:	e893000c 	ldm	r3, {r2, r3}
  302abc:	eb0027c0 	bl	30c9c4 <__adddf3>
  302ac0:	e1a03009 	mov	r3, r9
  302ac4:	e1a02008 	mov	r2, r8
  302ac8:	eb0028c1 	bl	30cdd4 <__aeabi_dmul>
  302acc:	e59f313c 	ldr	r3, [pc, #316]	; 302c10 <__kernel_cos+0x340>
  302ad0:	e1570003 	cmp	r7, r3
  302ad4:	e88d0003 	stm	sp, {r0, r1}
  302ad8:	daffffb1 	ble	3029a4 <__kernel_cos+0xd4>
  302adc:	e59f3130 	ldr	r3, [pc, #304]	; 302c14 <__kernel_cos+0x344>
  302ae0:	e1570003 	cmp	r7, r3
  302ae4:	e3a02000 	mov	r2, #0
  302ae8:	ca00002e 	bgt	302ba8 <__kernel_cos+0x2d8>
  302aec:	e2473602 	sub	r3, r7, #2097152	; 0x200000
  302af0:	e3a00000 	mov	r0, #0
  302af4:	e59f1110 	ldr	r1, [pc, #272]	; 302c0c <__kernel_cos+0x33c>
  302af8:	e1a06002 	mov	r6, r2
  302afc:	e1a07003 	mov	r7, r3
  302b00:	eb0027ae 	bl	30c9c0 <__aeabi_dsub>
  302b04:	e58d0008 	str	r0, [sp, #8]
  302b08:	e58d100c 	str	r1, [sp, #12]
  302b0c:	e1a00008 	mov	r0, r8
  302b10:	e1a01009 	mov	r1, r9
  302b14:	e3a02000 	mov	r2, #0
  302b18:	e59f30e8 	ldr	r3, [pc, #232]	; 302c08 <__kernel_cos+0x338>
  302b1c:	eb0028ac 	bl	30cdd4 <__aeabi_dmul>
  302b20:	e1a02006 	mov	r2, r6
  302b24:	e1a03007 	mov	r3, r7
  302b28:	eb0027a4 	bl	30c9c0 <__aeabi_dsub>
  302b2c:	e89d000c 	ldm	sp, {r2, r3}
  302b30:	e1a06000 	mov	r6, r0
  302b34:	e1a07001 	mov	r7, r1
  302b38:	e1a00008 	mov	r0, r8
  302b3c:	e1a01009 	mov	r1, r9
  302b40:	eb0028a3 	bl	30cdd4 <__aeabi_dmul>
  302b44:	e1a0200a 	mov	r2, sl
  302b48:	e1a08000 	mov	r8, r0
  302b4c:	e1a09001 	mov	r9, r1
  302b50:	e1a0300b 	mov	r3, fp
  302b54:	e1a00005 	mov	r0, r5
  302b58:	e1a01004 	mov	r1, r4
  302b5c:	eb00289c 	bl	30cdd4 <__aeabi_dmul>
  302b60:	e1a02000 	mov	r2, r0
  302b64:	e1a03001 	mov	r3, r1
  302b68:	e1a00008 	mov	r0, r8
  302b6c:	e1a01009 	mov	r1, r9
  302b70:	eb002792 	bl	30c9c0 <__aeabi_dsub>
  302b74:	e1a02000 	mov	r2, r0
  302b78:	e1a03001 	mov	r3, r1
  302b7c:	e1a00006 	mov	r0, r6
  302b80:	e1a01007 	mov	r1, r7
  302b84:	eb00278d 	bl	30c9c0 <__aeabi_dsub>
  302b88:	e1a02000 	mov	r2, r0
  302b8c:	e1a03001 	mov	r3, r1
  302b90:	e28d1008 	add	r1, sp, #8
  302b94:	e8910003 	ldm	r1, {r0, r1}
  302b98:	eb002788 	bl	30c9c0 <__aeabi_dsub>
  302b9c:	e28dd014 	add	sp, sp, #20
  302ba0:	e8bd4ff0 	pop	{r4, r5, r6, r7, r8, r9, sl, fp, lr}
  302ba4:	e12fff1e 	bx	lr
  302ba8:	e59f3068 	ldr	r3, [pc, #104]	; 302c18 <__kernel_cos+0x348>
  302bac:	e3a06000 	mov	r6, #0
  302bb0:	e58d2008 	str	r2, [sp, #8]
  302bb4:	e58d300c 	str	r3, [sp, #12]
  302bb8:	e59f705c 	ldr	r7, [pc, #92]	; 302c1c <__kernel_cos+0x34c>
  302bbc:	eaffffd2 	b	302b0c <__kernel_cos+0x23c>
  302bc0:	e3a00000 	mov	r0, #0
  302bc4:	e59f1040 	ldr	r1, [pc, #64]	; 302c0c <__kernel_cos+0x33c>
  302bc8:	e28dd014 	add	sp, sp, #20
  302bcc:	e8bd4ff0 	pop	{r4, r5, r6, r7, r8, r9, sl, fp, lr}
  302bd0:	e12fff1e 	bx	lr
  302bd4:	e1a00000 	nop			; (mov r0, r0)
  302bd8:	be8838d4 	mcrlt	8, 4, r3, cr8, cr4, {6}
  302bdc:	bda8fae9 	stclt	10, cr15, [r8, #932]!	; 0x3a4
  302be0:	bdb4b1c4 	ldfltd	f3, [r4, #784]!	; 0x310
  302be4:	3e21ee9e 	mcrcc	14, 1, lr, cr1, cr14, {4}
  302be8:	809c52ad 	addshi	r5, ip, sp, lsr #5
  302bec:	3e927e4f 	cdpcc	14, 9, cr7, cr2, cr15, {2}
  302bf0:	19cb1590 	stmibne	fp, {r4, r7, r8, sl, ip}^
  302bf4:	3efa01a0 	cdpcc	1, 15, cr0, cr10, cr0, {5}
  302bf8:	16c15177 			; <UNDEFINED> instruction: 0x16c15177
  302bfc:	3f56c16c 	svccc	0x0056c16c
  302c00:	5555554c 	ldrbpl	r5, [r5, #-1356]	; 0x54c
  302c04:	3fa55555 	svccc	0x00a55555
  302c08:	3fe00000 	svccc	0x00e00000
  302c0c:	3ff00000 	svccc	0x00f00000	; IMB
  302c10:	3fd33332 	svccc	0x00d33332
  302c14:	3fe90000 	svccc	0x00e90000
  302c18:	3fe70000 	svccc	0x00e70000
  302c1c:	3fd20000 	svccc	0x00d20000

00302c20 <__kernel_rem_pio2>:
  302c20:	e92d4ff0 	push	{r4, r5, r6, r7, r8, r9, sl, fp, lr}
  302c24:	e59feb90 	ldr	lr, [pc, #2960]	; 3037bc <__kernel_rem_pio2+0xb9c>
  302c28:	e242c003 	sub	ip, r2, #3
  302c2c:	e0ce4e9c 	smull	r4, lr, ip, lr
  302c30:	e1a04003 	mov	r4, r3
  302c34:	e1a0cfcc 	asr	ip, ip, #31
  302c38:	e06cc14e 	rsb	ip, ip, lr, asr #2
  302c3c:	e24ddf9b 	sub	sp, sp, #620	; 0x26c
  302c40:	e1cccfcc 	bic	ip, ip, ip, asr #31
  302c44:	e1a0e00c 	mov	lr, ip
  302c48:	e59d5290 	ldr	r5, [sp, #656]	; 0x290
  302c4c:	e58d3028 	str	r3, [sp, #40]	; 0x28
  302c50:	e58dc02c 	str	ip, [sp, #44]	; 0x2c
  302c54:	e1e0300c 	mvn	r3, ip
  302c58:	e59fcb60 	ldr	ip, [pc, #2912]	; 3037c0 <__kernel_rem_pio2+0xba0>
  302c5c:	e79cc105 	ldr	ip, [ip, r5, lsl #2]
  302c60:	e1a0500c 	mov	r5, ip
  302c64:	e58dc01c 	str	ip, [sp, #28]
  302c68:	e244c001 	sub	ip, r4, #1
  302c6c:	e1a0400c 	mov	r4, ip
  302c70:	e0833083 	add	r3, r3, r3, lsl #1
  302c74:	e58dc000 	str	ip, [sp]
  302c78:	e0823183 	add	r3, r2, r3, lsl #3
  302c7c:	e09cc005 	adds	ip, ip, r5
  302c80:	e58d000c 	str	r0, [sp, #12]
  302c84:	e58d1020 	str	r1, [sp, #32]
  302c88:	e58d3018 	str	r3, [sp, #24]
  302c8c:	e064500e 	rsb	r5, r4, lr
  302c90:	4a00000f 	bmi	302cd4 <__kernel_rem_pio2+0xb4>
  302c94:	e085c00c 	add	ip, r5, ip
  302c98:	e28c4001 	add	r4, ip, #1
  302c9c:	e28d6088 	add	r6, sp, #136	; 0x88
  302ca0:	e59d7294 	ldr	r7, [sp, #660]	; 0x294
  302ca4:	ea000005 	b	302cc0 <__kernel_rem_pio2+0xa0>
  302ca8:	e7970105 	ldr	r0, [r7, r5, lsl #2]
  302cac:	eb002811 	bl	30ccf8 <__aeabi_i2d>
  302cb0:	e2855001 	add	r5, r5, #1
  302cb4:	e1550004 	cmp	r5, r4
  302cb8:	e8a60003 	stmia	r6!, {r0, r1}
  302cbc:	0a000004 	beq	302cd4 <__kernel_rem_pio2+0xb4>
  302cc0:	e3550000 	cmp	r5, #0
  302cc4:	aafffff7 	bge	302ca8 <__kernel_rem_pio2+0x88>
  302cc8:	e3a00000 	mov	r0, #0
  302ccc:	e3a01000 	mov	r1, #0
  302cd0:	eafffff6 	b	302cb0 <__kernel_rem_pio2+0x90>
  302cd4:	e59d301c 	ldr	r3, [sp, #28]
  302cd8:	e3530000 	cmp	r3, #0
  302cdc:	e59d3028 	ldr	r3, [sp, #40]	; 0x28
  302ce0:	b1a03e83 	lsllt	r3, r3, #29
  302ce4:	b58d3014 	strlt	r3, [sp, #20]
  302ce8:	ba000026 	blt	302d88 <__kernel_rem_pio2+0x168>
  302cec:	e59d101c 	ldr	r1, [sp, #28]
  302cf0:	e1a02e83 	lsl	r2, r3, #29
  302cf4:	e283b001 	add	fp, r3, #1
  302cf8:	e08bb001 	add	fp, fp, r1
  302cfc:	e1a01002 	mov	r1, r2
  302d00:	e58d2014 	str	r2, [sp, #20]
  302d04:	e1a02003 	mov	r2, r3
  302d08:	e0633001 	rsb	r3, r3, r1
  302d0c:	e1a03183 	lsl	r3, r3, #3
  302d10:	e28d1088 	add	r1, sp, #136	; 0x88
  302d14:	e58d3010 	str	r3, [sp, #16]
  302d18:	e081b18b 	add	fp, r1, fp, lsl #3
  302d1c:	e0818182 	add	r8, r1, r2, lsl #3
  302d20:	e28d9f72 	add	r9, sp, #456	; 0x1c8
  302d24:	e59d3000 	ldr	r3, [sp]
  302d28:	e3530000 	cmp	r3, #0
  302d2c:	ba00012d 	blt	3031e8 <__kernel_rem_pio2+0x5c8>
  302d30:	e1a04008 	mov	r4, r8
  302d34:	e3a06000 	mov	r6, #0
  302d38:	e3a07000 	mov	r7, #0
  302d3c:	e59d3010 	ldr	r3, [sp, #16]
  302d40:	e59da00c 	ldr	sl, [sp, #12]
  302d44:	e0885003 	add	r5, r8, r3
  302d48:	e934000c 	ldmdb	r4!, {r2, r3}
  302d4c:	e8ba0003 	ldm	sl!, {r0, r1}
  302d50:	eb00281f 	bl	30cdd4 <__aeabi_dmul>
  302d54:	e1a02000 	mov	r2, r0
  302d58:	e1a03001 	mov	r3, r1
  302d5c:	e1a00006 	mov	r0, r6
  302d60:	e1a01007 	mov	r1, r7
  302d64:	eb002716 	bl	30c9c4 <__adddf3>
  302d68:	e1540005 	cmp	r4, r5
  302d6c:	e1a06000 	mov	r6, r0
  302d70:	e1a07001 	mov	r7, r1
  302d74:	1afffff3 	bne	302d48 <__kernel_rem_pio2+0x128>
  302d78:	e2888008 	add	r8, r8, #8
  302d7c:	e158000b 	cmp	r8, fp
  302d80:	e8a900c0 	stmia	r9!, {r6, r7}
  302d84:	1affffe6 	bne	302d24 <__kernel_rem_pio2+0x104>
  302d88:	e59d301c 	ldr	r3, [sp, #28]
  302d8c:	e59d1028 	ldr	r1, [sp, #40]	; 0x28
  302d90:	e2432107 	sub	r2, r3, #-1073741823	; 0xc0000001
  302d94:	e1a05003 	mov	r5, r3
  302d98:	e59d3014 	ldr	r3, [sp, #20]
  302d9c:	e0613003 	rsb	r3, r1, r3
  302da0:	e1a02102 	lsl	r2, r2, #2
  302da4:	e1a03183 	lsl	r3, r3, #3
  302da8:	e2821004 	add	r1, r2, #4
  302dac:	e58d3014 	str	r3, [sp, #20]
  302db0:	e28d3038 	add	r3, sp, #56	; 0x38
  302db4:	e0833001 	add	r3, r3, r1
  302db8:	e58d3034 	str	r3, [sp, #52]	; 0x34
  302dbc:	e28d3038 	add	r3, sp, #56	; 0x38
  302dc0:	e0833002 	add	r3, r3, r2
  302dc4:	e58d3030 	str	r3, [sp, #48]	; 0x30
  302dc8:	e1a04185 	lsl	r4, r5, #3
  302dcc:	e28d3f9a 	add	r3, sp, #616	; 0x268
  302dd0:	e0833004 	add	r3, r3, r4
  302dd4:	e3550000 	cmp	r5, #0
  302dd8:	e24370a0 	sub	r7, r3, #160	; 0xa0
  302ddc:	e89700c0 	ldm	r7, {r6, r7}
  302de0:	da00001d 	ble	302e5c <__kernel_rem_pio2+0x23c>
  302de4:	e28dbf72 	add	fp, sp, #456	; 0x1c8
  302de8:	e08b4004 	add	r4, fp, r4
  302dec:	e28da034 	add	sl, sp, #52	; 0x34
  302df0:	e3a02000 	mov	r2, #0
  302df4:	e59f39c8 	ldr	r3, [pc, #2504]	; 3037c4 <__kernel_rem_pio2+0xba4>
  302df8:	e1a00006 	mov	r0, r6
  302dfc:	e1a01007 	mov	r1, r7
  302e00:	eb0027f3 	bl	30cdd4 <__aeabi_dmul>
  302e04:	eb00296a 	bl	30d3b4 <__aeabi_d2iz>
  302e08:	eb0027ba 	bl	30ccf8 <__aeabi_i2d>
  302e0c:	e3a02000 	mov	r2, #0
  302e10:	e59f39b0 	ldr	r3, [pc, #2480]	; 3037c8 <__kernel_rem_pio2+0xba8>
  302e14:	e1a08000 	mov	r8, r0
  302e18:	e1a09001 	mov	r9, r1
  302e1c:	eb0027ec 	bl	30cdd4 <__aeabi_dmul>
  302e20:	e1a02000 	mov	r2, r0
  302e24:	e1a03001 	mov	r3, r1
  302e28:	e1a00006 	mov	r0, r6
  302e2c:	e1a01007 	mov	r1, r7
  302e30:	eb0026e2 	bl	30c9c0 <__aeabi_dsub>
  302e34:	eb00295e 	bl	30d3b4 <__aeabi_d2iz>
  302e38:	e934000c 	ldmdb	r4!, {r2, r3}
  302e3c:	e5aa0004 	str	r0, [sl, #4]!
  302e40:	e1a01009 	mov	r1, r9
  302e44:	e1a00008 	mov	r0, r8
  302e48:	eb0026dd 	bl	30c9c4 <__adddf3>
  302e4c:	e154000b 	cmp	r4, fp
  302e50:	e1a06000 	mov	r6, r0
  302e54:	e1a07001 	mov	r7, r1
  302e58:	1affffe4 	bne	302df0 <__kernel_rem_pio2+0x1d0>
  302e5c:	e59d4018 	ldr	r4, [sp, #24]
  302e60:	e1a00006 	mov	r0, r6
  302e64:	e1a01007 	mov	r1, r7
  302e68:	e1a02004 	mov	r2, r4
  302e6c:	eb0002f9 	bl	303a58 <scalbn>
  302e70:	e3a02000 	mov	r2, #0
  302e74:	e3a035ff 	mov	r3, #1069547520	; 0x3fc00000
  302e78:	e1a06000 	mov	r6, r0
  302e7c:	e1a07001 	mov	r7, r1
  302e80:	eb0027d3 	bl	30cdd4 <__aeabi_dmul>
  302e84:	ebfffb7f 	bl	301c88 <floor>
  302e88:	e3a02000 	mov	r2, #0
  302e8c:	e59f3938 	ldr	r3, [pc, #2360]	; 3037cc <__kernel_rem_pio2+0xbac>
  302e90:	eb0027cf 	bl	30cdd4 <__aeabi_dmul>
  302e94:	e1a02000 	mov	r2, r0
  302e98:	e1a03001 	mov	r3, r1
  302e9c:	e1a00006 	mov	r0, r6
  302ea0:	e1a01007 	mov	r1, r7
  302ea4:	eb0026c5 	bl	30c9c0 <__aeabi_dsub>
  302ea8:	e1a07001 	mov	r7, r1
  302eac:	e1a06000 	mov	r6, r0
  302eb0:	eb00293f 	bl	30d3b4 <__aeabi_d2iz>
  302eb4:	e1a08000 	mov	r8, r0
  302eb8:	eb00278e 	bl	30ccf8 <__aeabi_i2d>
  302ebc:	e1a02000 	mov	r2, r0
  302ec0:	e1a03001 	mov	r3, r1
  302ec4:	e1a00006 	mov	r0, r6
  302ec8:	e1a01007 	mov	r1, r7
  302ecc:	eb0026bb 	bl	30c9c0 <__aeabi_dsub>
  302ed0:	e3540000 	cmp	r4, #0
  302ed4:	e1a06000 	mov	r6, r0
  302ed8:	e1a07001 	mov	r7, r1
  302edc:	da0000a0 	ble	303164 <__kernel_rem_pio2+0x544>
  302ee0:	e28d3f9a 	add	r3, sp, #616	; 0x268
  302ee4:	e2452001 	sub	r2, r5, #1
  302ee8:	e0832102 	add	r2, r3, r2, lsl #2
  302eec:	e5123230 	ldr	r3, [r2, #-560]	; 0x230
  302ef0:	e2649018 	rsb	r9, r4, #24
  302ef4:	e1a01953 	asr	r1, r3, r9
  302ef8:	e0433911 	sub	r3, r3, r1, lsl r9
  302efc:	e5023230 	str	r3, [r2, #-560]	; 0x230
  302f00:	e2649017 	rsb	r9, r4, #23
  302f04:	e0888001 	add	r8, r8, r1
  302f08:	e1a09953 	asr	r9, r3, r9
  302f0c:	e3590000 	cmp	r9, #0
  302f10:	da000027 	ble	302fb4 <__kernel_rem_pio2+0x394>
  302f14:	e3550000 	cmp	r5, #0
  302f18:	e2888001 	add	r8, r8, #1
  302f1c:	da0000b4 	ble	3031f4 <__kernel_rem_pio2+0x5d4>
  302f20:	e3a02000 	mov	r2, #0
  302f24:	e28d1034 	add	r1, sp, #52	; 0x34
  302f28:	e1a04002 	mov	r4, r2
  302f2c:	ea000006 	b	302f4c <__kernel_rem_pio2+0x32c>
  302f30:	e3530000 	cmp	r3, #0
  302f34:	e2822001 	add	r2, r2, #1
  302f38:	e2633401 	rsb	r3, r3, #16777216	; 0x1000000
  302f3c:	15813000 	strne	r3, [r1]
  302f40:	13a04001 	movne	r4, #1
  302f44:	e1550002 	cmp	r5, r2
  302f48:	da000009 	ble	302f74 <__kernel_rem_pio2+0x354>
  302f4c:	e3540000 	cmp	r4, #0
  302f50:	e5b13004 	ldr	r3, [r1, #4]!
  302f54:	0afffff5 	beq	302f30 <__kernel_rem_pio2+0x310>
  302f58:	e3e004ff 	mvn	r0, #-16777216	; 0xff000000
  302f5c:	e2822001 	add	r2, r2, #1
  302f60:	e0630000 	rsb	r0, r3, r0
  302f64:	e1550002 	cmp	r5, r2
  302f68:	e3a04001 	mov	r4, #1
  302f6c:	e5810000 	str	r0, [r1]
  302f70:	cafffff5 	bgt	302f4c <__kernel_rem_pio2+0x32c>
  302f74:	e59d3018 	ldr	r3, [sp, #24]
  302f78:	e3530000 	cmp	r3, #0
  302f7c:	da00000a 	ble	302fac <__kernel_rem_pio2+0x38c>
  302f80:	e3530001 	cmp	r3, #1
  302f84:	0a00007c 	beq	30317c <__kernel_rem_pio2+0x55c>
  302f88:	e3530002 	cmp	r3, #2
  302f8c:	1a000006 	bne	302fac <__kernel_rem_pio2+0x38c>
  302f90:	e28d3f9a 	add	r3, sp, #616	; 0x268
  302f94:	e2452001 	sub	r2, r5, #1
  302f98:	e0832102 	add	r2, r3, r2, lsl #2
  302f9c:	e5123230 	ldr	r3, [r2, #-560]	; 0x230
  302fa0:	e3c334ff 	bic	r3, r3, #-16777216	; 0xff000000
  302fa4:	e3c33503 	bic	r3, r3, #12582912	; 0xc00000
  302fa8:	e5023230 	str	r3, [r2, #-560]	; 0x230
  302fac:	e3590002 	cmp	r9, #2
  302fb0:	0a000056 	beq	303110 <__kernel_rem_pio2+0x4f0>
  302fb4:	e1a00006 	mov	r0, r6
  302fb8:	e1a01007 	mov	r1, r7
  302fbc:	e3a02000 	mov	r2, #0
  302fc0:	e3a03000 	mov	r3, #0
  302fc4:	eb0028dc 	bl	30d33c <__aeabi_dcmpeq>
  302fc8:	e3500000 	cmp	r0, #0
  302fcc:	0a00008c 	beq	303204 <__kernel_rem_pio2+0x5e4>
  302fd0:	e59d301c 	ldr	r3, [sp, #28]
  302fd4:	e2454001 	sub	r4, r5, #1
  302fd8:	e1530004 	cmp	r3, r4
  302fdc:	ca000009 	bgt	303008 <__kernel_rem_pio2+0x3e8>
  302fe0:	e3a02000 	mov	r2, #0
  302fe4:	e28d3038 	add	r3, sp, #56	; 0x38
  302fe8:	e59d0034 	ldr	r0, [sp, #52]	; 0x34
  302fec:	e0833105 	add	r3, r3, r5, lsl #2
  302ff0:	e5331004 	ldr	r1, [r3, #-4]!
  302ff4:	e1530000 	cmp	r3, r0
  302ff8:	e1822001 	orr	r2, r2, r1
  302ffc:	1afffffb 	bne	302ff0 <__kernel_rem_pio2+0x3d0>
  303000:	e3520000 	cmp	r2, #0
  303004:	1a000160 	bne	30358c <__kernel_rem_pio2+0x96c>
  303008:	e59d201c 	ldr	r2, [sp, #28]
  30300c:	e28d3f9a 	add	r3, sp, #616	; 0x268
  303010:	e0833102 	add	r3, r3, r2, lsl #2
  303014:	e5133234 	ldr	r3, [r3, #-564]	; 0x234
  303018:	e3530000 	cmp	r3, #0
  30301c:	1a000076 	bne	3031fc <__kernel_rem_pio2+0x5dc>
  303020:	e3a03001 	mov	r3, #1
  303024:	e59d2030 	ldr	r2, [sp, #48]	; 0x30
  303028:	e5321004 	ldr	r1, [r2, #-4]!
  30302c:	e3510000 	cmp	r1, #0
  303030:	e2833001 	add	r3, r3, #1
  303034:	0afffffb 	beq	303028 <__kernel_rem_pio2+0x408>
  303038:	e0853003 	add	r3, r5, r3
  30303c:	e285a001 	add	sl, r5, #1
  303040:	e15a0003 	cmp	sl, r3
  303044:	e58d3024 	str	r3, [sp, #36]	; 0x24
  303048:	ca00002b 	bgt	3030fc <__kernel_rem_pio2+0x4dc>
  30304c:	e59d302c 	ldr	r3, [sp, #44]	; 0x2c
  303050:	e59d2028 	ldr	r2, [sp, #40]	; 0x28
  303054:	e08a9003 	add	r9, sl, r3
  303058:	e283b001 	add	fp, r3, #1
  30305c:	e0855002 	add	r5, r5, r2
  303060:	e28d3088 	add	r3, sp, #136	; 0x88
  303064:	e59d2024 	ldr	r2, [sp, #36]	; 0x24
  303068:	e0838185 	add	r8, r3, r5, lsl #3
  30306c:	e59d3294 	ldr	r3, [sp, #660]	; 0x294
  303070:	e08bb002 	add	fp, fp, r2
  303074:	e083310b 	add	r3, r3, fp, lsl #2
  303078:	e58d3010 	str	r3, [sp, #16]
  30307c:	e59d3294 	ldr	r3, [sp, #660]	; 0x294
  303080:	e0839109 	add	r9, r3, r9, lsl #2
  303084:	e28d3f72 	add	r3, sp, #456	; 0x1c8
  303088:	e083a18a 	add	sl, r3, sl, lsl #3
  30308c:	e4990004 	ldr	r0, [r9], #4
  303090:	eb002718 	bl	30ccf8 <__aeabi_i2d>
  303094:	e59d3000 	ldr	r3, [sp]
  303098:	e3530000 	cmp	r3, #0
  30309c:	e8a80003 	stmia	r8!, {r0, r1}
  3030a0:	ba000017 	blt	303104 <__kernel_rem_pio2+0x4e4>
  3030a4:	e1a04008 	mov	r4, r8
  3030a8:	e3a06000 	mov	r6, #0
  3030ac:	e3a07000 	mov	r7, #0
  3030b0:	e59d3014 	ldr	r3, [sp, #20]
  3030b4:	e59db00c 	ldr	fp, [sp, #12]
  3030b8:	e0885003 	add	r5, r8, r3
  3030bc:	e934000c 	ldmdb	r4!, {r2, r3}
  3030c0:	e8bb0003 	ldm	fp!, {r0, r1}
  3030c4:	eb002742 	bl	30cdd4 <__aeabi_dmul>
  3030c8:	e1a02000 	mov	r2, r0
  3030cc:	e1a03001 	mov	r3, r1
  3030d0:	e1a00006 	mov	r0, r6
  3030d4:	e1a01007 	mov	r1, r7
  3030d8:	eb002639 	bl	30c9c4 <__adddf3>
  3030dc:	e1540005 	cmp	r4, r5
  3030e0:	e1a06000 	mov	r6, r0
  3030e4:	e1a07001 	mov	r7, r1
  3030e8:	1afffff3 	bne	3030bc <__kernel_rem_pio2+0x49c>
  3030ec:	e59d3010 	ldr	r3, [sp, #16]
  3030f0:	e1590003 	cmp	r9, r3
  3030f4:	e8aa00c0 	stmia	sl!, {r6, r7}
  3030f8:	1affffe3 	bne	30308c <__kernel_rem_pio2+0x46c>
  3030fc:	e59d5024 	ldr	r5, [sp, #36]	; 0x24
  303100:	eaffff30 	b	302dc8 <__kernel_rem_pio2+0x1a8>
  303104:	e3a06000 	mov	r6, #0
  303108:	e3a07000 	mov	r7, #0
  30310c:	eafffff6 	b	3030ec <__kernel_rem_pio2+0x4cc>
  303110:	e1a02006 	mov	r2, r6
  303114:	e1a03007 	mov	r3, r7
  303118:	e3a00000 	mov	r0, #0
  30311c:	e59f16ac 	ldr	r1, [pc, #1708]	; 3037d0 <__kernel_rem_pio2+0xbb0>
  303120:	eb002626 	bl	30c9c0 <__aeabi_dsub>
  303124:	e3540000 	cmp	r4, #0
  303128:	e1a06000 	mov	r6, r0
  30312c:	e1a07001 	mov	r7, r1
  303130:	0affff9f 	beq	302fb4 <__kernel_rem_pio2+0x394>
  303134:	e59d2018 	ldr	r2, [sp, #24]
  303138:	e3a00000 	mov	r0, #0
  30313c:	e59f168c 	ldr	r1, [pc, #1676]	; 3037d0 <__kernel_rem_pio2+0xbb0>
  303140:	eb000244 	bl	303a58 <scalbn>
  303144:	e1a02000 	mov	r2, r0
  303148:	e1a03001 	mov	r3, r1
  30314c:	e1a00006 	mov	r0, r6
  303150:	e1a01007 	mov	r1, r7
  303154:	eb002619 	bl	30c9c0 <__aeabi_dsub>
  303158:	e1a06000 	mov	r6, r0
  30315c:	e1a07001 	mov	r7, r1
  303160:	eaffff93 	b	302fb4 <__kernel_rem_pio2+0x394>
  303164:	1a00000c 	bne	30319c <__kernel_rem_pio2+0x57c>
  303168:	e28d3f9a 	add	r3, sp, #616	; 0x268
  30316c:	e0833105 	add	r3, r3, r5, lsl #2
  303170:	e5139234 	ldr	r9, [r3, #-564]	; 0x234
  303174:	e1a09bc9 	asr	r9, r9, #23
  303178:	eaffff63 	b	302f0c <__kernel_rem_pio2+0x2ec>
  30317c:	e28d3f9a 	add	r3, sp, #616	; 0x268
  303180:	e2452001 	sub	r2, r5, #1
  303184:	e0832102 	add	r2, r3, r2, lsl #2
  303188:	e5123230 	ldr	r3, [r2, #-560]	; 0x230
  30318c:	e3c334ff 	bic	r3, r3, #-16777216	; 0xff000000
  303190:	e3c33502 	bic	r3, r3, #8388608	; 0x800000
  303194:	e5023230 	str	r3, [r2, #-560]	; 0x230
  303198:	eaffff83 	b	302fac <__kernel_rem_pio2+0x38c>
  30319c:	e3a02000 	mov	r2, #0
  3031a0:	e59f362c 	ldr	r3, [pc, #1580]	; 3037d4 <__kernel_rem_pio2+0xbb4>
  3031a4:	eb002876 	bl	30d384 <__aeabi_dcmpge>
  3031a8:	e3500000 	cmp	r0, #0
  3031ac:	01a09000 	moveq	r9, r0
  3031b0:	0affff7f 	beq	302fb4 <__kernel_rem_pio2+0x394>
  3031b4:	e3550000 	cmp	r5, #0
  3031b8:	e2888001 	add	r8, r8, #1
  3031bc:	c3a09002 	movgt	r9, #2
  3031c0:	caffff56 	bgt	302f20 <__kernel_rem_pio2+0x300>
  3031c4:	e1a02006 	mov	r2, r6
  3031c8:	e1a03007 	mov	r3, r7
  3031cc:	e3a00000 	mov	r0, #0
  3031d0:	e59f15f8 	ldr	r1, [pc, #1528]	; 3037d0 <__kernel_rem_pio2+0xbb0>
  3031d4:	eb0025f9 	bl	30c9c0 <__aeabi_dsub>
  3031d8:	e3a09002 	mov	r9, #2
  3031dc:	e1a06000 	mov	r6, r0
  3031e0:	e1a07001 	mov	r7, r1
  3031e4:	eaffff72 	b	302fb4 <__kernel_rem_pio2+0x394>
  3031e8:	e3a06000 	mov	r6, #0
  3031ec:	e3a07000 	mov	r7, #0
  3031f0:	eafffee0 	b	302d78 <__kernel_rem_pio2+0x158>
  3031f4:	e3a04000 	mov	r4, #0
  3031f8:	eaffff5d 	b	302f74 <__kernel_rem_pio2+0x354>
  3031fc:	e3a03001 	mov	r3, #1
  303200:	eaffff8c 	b	303038 <__kernel_rem_pio2+0x418>
  303204:	e59d3018 	ldr	r3, [sp, #24]
  303208:	e1a00006 	mov	r0, r6
  30320c:	e2632000 	rsb	r2, r3, #0
  303210:	e1a01007 	mov	r1, r7
  303214:	e58d900c 	str	r9, [sp, #12]
  303218:	e58d8010 	str	r8, [sp, #16]
  30321c:	eb00020d 	bl	303a58 <scalbn>
  303220:	e3a02000 	mov	r2, #0
  303224:	e59f359c 	ldr	r3, [pc, #1436]	; 3037c8 <__kernel_rem_pio2+0xba8>
  303228:	e1a06000 	mov	r6, r0
  30322c:	e1a07001 	mov	r7, r1
  303230:	eb002853 	bl	30d384 <__aeabi_dcmpge>
  303234:	e3500000 	cmp	r0, #0
  303238:	0a000157 	beq	30379c <__kernel_rem_pio2+0xb7c>
  30323c:	e3a02000 	mov	r2, #0
  303240:	e59f357c 	ldr	r3, [pc, #1404]	; 3037c4 <__kernel_rem_pio2+0xba4>
  303244:	e1a00006 	mov	r0, r6
  303248:	e1a01007 	mov	r1, r7
  30324c:	eb0026e0 	bl	30cdd4 <__aeabi_dmul>
  303250:	eb002857 	bl	30d3b4 <__aeabi_d2iz>
  303254:	e1a08000 	mov	r8, r0
  303258:	eb0026a6 	bl	30ccf8 <__aeabi_i2d>
  30325c:	e3a02000 	mov	r2, #0
  303260:	e59f3560 	ldr	r3, [pc, #1376]	; 3037c8 <__kernel_rem_pio2+0xba8>
  303264:	eb0026da 	bl	30cdd4 <__aeabi_dmul>
  303268:	e1a02000 	mov	r2, r0
  30326c:	e1a03001 	mov	r3, r1
  303270:	e1a00006 	mov	r0, r6
  303274:	e1a01007 	mov	r1, r7
  303278:	eb0025d0 	bl	30c9c0 <__aeabi_dsub>
  30327c:	eb00284c 	bl	30d3b4 <__aeabi_d2iz>
  303280:	e59d2018 	ldr	r2, [sp, #24]
  303284:	e2854001 	add	r4, r5, #1
  303288:	e28d3f9a 	add	r3, sp, #616	; 0x268
  30328c:	e0835105 	add	r5, r3, r5, lsl #2
  303290:	e2822018 	add	r2, r2, #24
  303294:	e0833104 	add	r3, r3, r4, lsl #2
  303298:	e5050230 	str	r0, [r5, #-560]	; 0x230
  30329c:	e58d2018 	str	r2, [sp, #24]
  3032a0:	e5038230 	str	r8, [r3, #-560]	; 0x230
  3032a4:	e59d2018 	ldr	r2, [sp, #24]
  3032a8:	e3a00000 	mov	r0, #0
  3032ac:	e59f151c 	ldr	r1, [pc, #1308]	; 3037d0 <__kernel_rem_pio2+0xbb0>
  3032b0:	eb0001e8 	bl	303a58 <scalbn>
  3032b4:	e3540000 	cmp	r4, #0
  3032b8:	e1a06000 	mov	r6, r0
  3032bc:	e1a07001 	mov	r7, r1
  3032c0:	ba000093 	blt	303514 <__kernel_rem_pio2+0x8f4>
  3032c4:	e2843001 	add	r3, r4, #1
  3032c8:	e1a09183 	lsl	r9, r3, #3
  3032cc:	e58d3000 	str	r3, [sp]
  3032d0:	e28d8f72 	add	r8, sp, #456	; 0x1c8
  3032d4:	e28d3038 	add	r3, sp, #56	; 0x38
  3032d8:	e083a104 	add	sl, r3, r4, lsl #2
  3032dc:	e0885009 	add	r5, r8, r9
  3032e0:	e41a0004 	ldr	r0, [sl], #-4
  3032e4:	eb002683 	bl	30ccf8 <__aeabi_i2d>
  3032e8:	e1a02006 	mov	r2, r6
  3032ec:	e1a03007 	mov	r3, r7
  3032f0:	eb0026b7 	bl	30cdd4 <__aeabi_dmul>
  3032f4:	e3a02000 	mov	r2, #0
  3032f8:	e9250003 	stmdb	r5!, {r0, r1}
  3032fc:	e59f34c0 	ldr	r3, [pc, #1216]	; 3037c4 <__kernel_rem_pio2+0xba4>
  303300:	e1a00006 	mov	r0, r6
  303304:	e1a01007 	mov	r1, r7
  303308:	eb0026b1 	bl	30cdd4 <__aeabi_dmul>
  30330c:	e1550008 	cmp	r5, r8
  303310:	e1a06000 	mov	r6, r0
  303314:	e1a07001 	mov	r7, r1
  303318:	1afffff0 	bne	3032e0 <__kernel_rem_pio2+0x6c0>
  30331c:	e2499008 	sub	r9, r9, #8
  303320:	e085a009 	add	sl, r5, r9
  303324:	e3a09000 	mov	r9, #0
  303328:	e59db01c 	ldr	fp, [sp, #28]
  30332c:	e58d4014 	str	r4, [sp, #20]
  303330:	e35b0000 	cmp	fp, #0
  303334:	ba000073 	blt	303508 <__kernel_rem_pio2+0x8e8>
  303338:	e3590000 	cmp	r9, #0
  30333c:	ba000071 	blt	303508 <__kernel_rem_pio2+0x8e8>
  303340:	e59f4490 	ldr	r4, [pc, #1168]	; 3037d8 <__kernel_rem_pio2+0xbb8>
  303344:	e1a0800a 	mov	r8, sl
  303348:	e3a06000 	mov	r6, #0
  30334c:	e3a07000 	mov	r7, #0
  303350:	e3a05000 	mov	r5, #0
  303354:	ea000001 	b	303360 <__kernel_rem_pio2+0x740>
  303358:	e1550009 	cmp	r5, r9
  30335c:	ca00000c 	bgt	303394 <__kernel_rem_pio2+0x774>
  303360:	e8b8000c 	ldm	r8!, {r2, r3}
  303364:	e8b40003 	ldm	r4!, {r0, r1}
  303368:	eb002699 	bl	30cdd4 <__aeabi_dmul>
  30336c:	e1a02000 	mov	r2, r0
  303370:	e1a03001 	mov	r3, r1
  303374:	e1a00006 	mov	r0, r6
  303378:	e1a01007 	mov	r1, r7
  30337c:	eb002590 	bl	30c9c4 <__adddf3>
  303380:	e2855001 	add	r5, r5, #1
  303384:	e15b0005 	cmp	fp, r5
  303388:	e1a06000 	mov	r6, r0
  30338c:	e1a07001 	mov	r7, r1
  303390:	aafffff0 	bge	303358 <__kernel_rem_pio2+0x738>
  303394:	e28d3f9a 	add	r3, sp, #616	; 0x268
  303398:	e59d2000 	ldr	r2, [sp]
  30339c:	e0833189 	add	r3, r3, r9, lsl #3
  3033a0:	e2899001 	add	r9, r9, #1
  3033a4:	e1520009 	cmp	r2, r9
  3033a8:	e24aa008 	sub	sl, sl, #8
  3033ac:	e5036140 	str	r6, [r3, #-320]	; 0x140
  3033b0:	e503713c 	str	r7, [r3, #-316]	; 0x13c
  3033b4:	1affffdd 	bne	303330 <__kernel_rem_pio2+0x710>
  3033b8:	e59d3290 	ldr	r3, [sp, #656]	; 0x290
  3033bc:	e59d4014 	ldr	r4, [sp, #20]
  3033c0:	e3530003 	cmp	r3, #3
  3033c4:	979ff103 	ldrls	pc, [pc, r3, lsl #2]
  3033c8:	ea000049 	b	3034f4 <__kernel_rem_pio2+0x8d4>
  3033cc:	003034a0 	eorseq	r3, r0, r0, lsr #9
  3033d0:	003033dc 	ldrsbteq	r3, [r0], -ip
  3033d4:	003033dc 	ldrsbteq	r3, [r0], -ip
  3033d8:	003035dc 	ldrsbteq	r3, [r0], -ip
  3033dc:	e3a0c000 	mov	ip, #0
  3033e0:	e1a0e00c 	mov	lr, ip
  3033e4:	e59d3000 	ldr	r3, [sp]
  3033e8:	e28d5f4a 	add	r5, sp, #296	; 0x128
  3033ec:	e085b183 	add	fp, r5, r3, lsl #3
  3033f0:	e1a0000c 	mov	r0, ip
  3033f4:	e1a0100e 	mov	r1, lr
  3033f8:	e93b000c 	ldmdb	fp!, {r2, r3}
  3033fc:	eb002570 	bl	30c9c4 <__adddf3>
  303400:	e15b0005 	cmp	fp, r5
  303404:	e1a0c000 	mov	ip, r0
  303408:	e1a0e001 	mov	lr, r1
  30340c:	1afffff7 	bne	3033f0 <__kernel_rem_pio2+0x7d0>
  303410:	e59d300c 	ldr	r3, [sp, #12]
  303414:	e3530000 	cmp	r3, #0
  303418:	0a00004a 	beq	303548 <__kernel_rem_pio2+0x928>
  30341c:	e59d1020 	ldr	r1, [sp, #32]
  303420:	e1a0300e 	mov	r3, lr
  303424:	e28ee102 	add	lr, lr, #-2147483648	; 0x80000000
  303428:	e1a0200c 	mov	r2, ip
  30342c:	e8815000 	stm	r1, {ip, lr}
  303430:	e28d1f4a 	add	r1, sp, #296	; 0x128
  303434:	e8910003 	ldm	r1, {r0, r1}
  303438:	eb002560 	bl	30c9c0 <__aeabi_dsub>
  30343c:	e3540000 	cmp	r4, #0
  303440:	e1a02000 	mov	r2, r0
  303444:	e1a03001 	mov	r3, r1
  303448:	da00000d 	ble	303484 <__kernel_rem_pio2+0x864>
  30344c:	e3a05001 	mov	r5, #1
  303450:	e28d6e13 	add	r6, sp, #304	; 0x130
  303454:	e1a00002 	mov	r0, r2
  303458:	e1a01003 	mov	r1, r3
  30345c:	e8b6000c 	ldm	r6!, {r2, r3}
  303460:	eb002557 	bl	30c9c4 <__adddf3>
  303464:	e2855001 	add	r5, r5, #1
  303468:	e1540005 	cmp	r4, r5
  30346c:	e1a02000 	mov	r2, r0
  303470:	e1a03001 	mov	r3, r1
  303474:	aafffff6 	bge	303454 <__kernel_rem_pio2+0x834>
  303478:	e59d100c 	ldr	r1, [sp, #12]
  30347c:	e3510000 	cmp	r1, #0
  303480:	0a000000 	beq	303488 <__kernel_rem_pio2+0x868>
  303484:	e2833102 	add	r3, r3, #-2147483648	; 0x80000000
  303488:	e1a01003 	mov	r1, r3
  30348c:	e1a00002 	mov	r0, r2
  303490:	e59d3020 	ldr	r3, [sp, #32]
  303494:	e5830008 	str	r0, [r3, #8]
  303498:	e583100c 	str	r1, [r3, #12]
  30349c:	ea000014 	b	3034f4 <__kernel_rem_pio2+0x8d4>
  3034a0:	e3a02000 	mov	r2, #0
  3034a4:	e1a03002 	mov	r3, r2
  3034a8:	e59d0000 	ldr	r0, [sp]
  3034ac:	e28d1f4a 	add	r1, sp, #296	; 0x128
  3034b0:	e081b180 	add	fp, r1, r0, lsl #3
  3034b4:	e1a00002 	mov	r0, r2
  3034b8:	e1a01003 	mov	r1, r3
  3034bc:	e93b000c 	ldmdb	fp!, {r2, r3}
  3034c0:	eb00253f 	bl	30c9c4 <__adddf3>
  3034c4:	e2444001 	sub	r4, r4, #1
  3034c8:	e3740001 	cmn	r4, #1
  3034cc:	e1a02000 	mov	r2, r0
  3034d0:	e1a03001 	mov	r3, r1
  3034d4:	1afffff6 	bne	3034b4 <__kernel_rem_pio2+0x894>
  3034d8:	e59d100c 	ldr	r1, [sp, #12]
  3034dc:	e3510000 	cmp	r1, #0
  3034e0:	12833102 	addne	r3, r3, #-2147483648	; 0x80000000
  3034e4:	e1a01003 	mov	r1, r3
  3034e8:	e1a00002 	mov	r0, r2
  3034ec:	e59d3020 	ldr	r3, [sp, #32]
  3034f0:	e8830003 	stm	r3, {r0, r1}
  3034f4:	e59d3010 	ldr	r3, [sp, #16]
  3034f8:	e2030007 	and	r0, r3, #7
  3034fc:	e28ddf9b 	add	sp, sp, #620	; 0x26c
  303500:	e8bd4ff0 	pop	{r4, r5, r6, r7, r8, r9, sl, fp, lr}
  303504:	e12fff1e 	bx	lr
  303508:	e3a06000 	mov	r6, #0
  30350c:	e3a07000 	mov	r7, #0
  303510:	eaffff9f 	b	303394 <__kernel_rem_pio2+0x774>
  303514:	e59d3290 	ldr	r3, [sp, #656]	; 0x290
  303518:	e3530003 	cmp	r3, #3
  30351c:	979ff103 	ldrls	pc, [pc, r3, lsl #2]
  303520:	eafffff3 	b	3034f4 <__kernel_rem_pio2+0x8d4>
  303524:	00303580 	eorseq	r3, r0, r0, lsl #11
  303528:	00303534 	eorseq	r3, r0, r4, lsr r5
  30352c:	00303534 	eorseq	r3, r0, r4, lsr r5
  303530:	00303754 	eorseq	r3, r0, r4, asr r7
  303534:	e3a0c000 	mov	ip, #0
  303538:	e59d300c 	ldr	r3, [sp, #12]
  30353c:	e3530000 	cmp	r3, #0
  303540:	e1a0e00c 	mov	lr, ip
  303544:	1affffb4 	bne	30341c <__kernel_rem_pio2+0x7fc>
  303548:	e1a0000c 	mov	r0, ip
  30354c:	e1a0100e 	mov	r1, lr
  303550:	e1a0200c 	mov	r2, ip
  303554:	e59dc020 	ldr	ip, [sp, #32]
  303558:	e1a0300e 	mov	r3, lr
  30355c:	e88c0003 	stm	ip, {r0, r1}
  303560:	e28d1f4a 	add	r1, sp, #296	; 0x128
  303564:	e8910003 	ldm	r1, {r0, r1}
  303568:	eb002514 	bl	30c9c0 <__aeabi_dsub>
  30356c:	e3540000 	cmp	r4, #0
  303570:	e1a02000 	mov	r2, r0
  303574:	e1a03001 	mov	r3, r1
  303578:	caffffb3 	bgt	30344c <__kernel_rem_pio2+0x82c>
  30357c:	eaffffc1 	b	303488 <__kernel_rem_pio2+0x868>
  303580:	e3a02000 	mov	r2, #0
  303584:	e1a03002 	mov	r3, r2
  303588:	eaffffd2 	b	3034d8 <__kernel_rem_pio2+0x8b8>
  30358c:	e1a03104 	lsl	r3, r4, #2
  303590:	e28d2f9a 	add	r2, sp, #616	; 0x268
  303594:	e0822003 	add	r2, r2, r3
  303598:	e5122230 	ldr	r2, [r2, #-560]	; 0x230
  30359c:	e3520000 	cmp	r2, #0
  3035a0:	e59d2018 	ldr	r2, [sp, #24]
  3035a4:	e2422018 	sub	r2, r2, #24
  3035a8:	e58d900c 	str	r9, [sp, #12]
  3035ac:	e58d8010 	str	r8, [sp, #16]
  3035b0:	e58d2018 	str	r2, [sp, #24]
  3035b4:	1affff3a 	bne	3032a4 <__kernel_rem_pio2+0x684>
  3035b8:	e28d1038 	add	r1, sp, #56	; 0x38
  3035bc:	e0813003 	add	r3, r1, r3
  3035c0:	e5331004 	ldr	r1, [r3, #-4]!
  3035c4:	e3510000 	cmp	r1, #0
  3035c8:	e2444001 	sub	r4, r4, #1
  3035cc:	e2422018 	sub	r2, r2, #24
  3035d0:	0afffffa 	beq	3035c0 <__kernel_rem_pio2+0x9a0>
  3035d4:	e58d2018 	str	r2, [sp, #24]
  3035d8:	eaffff31 	b	3032a4 <__kernel_rem_pio2+0x684>
  3035dc:	e3540000 	cmp	r4, #0
  3035e0:	da00005b 	ble	303754 <__kernel_rem_pio2+0xb34>
  3035e4:	e1a05184 	lsl	r5, r4, #3
  3035e8:	e28d3f9a 	add	r3, sp, #616	; 0x268
  3035ec:	e0833005 	add	r3, r3, r5
  3035f0:	e28dbf4a 	add	fp, sp, #296	; 0x128
  3035f4:	e2439d05 	sub	r9, r3, #320	; 0x140
  3035f8:	e8990300 	ldm	r9, {r8, r9}
  3035fc:	e08ba005 	add	sl, fp, r5
  303600:	e93a000c 	ldmdb	sl!, {r2, r3}
  303604:	e1a00008 	mov	r0, r8
  303608:	e1a01009 	mov	r1, r9
  30360c:	e88d000c 	stm	sp, {r2, r3}
  303610:	eb0024eb 	bl	30c9c4 <__adddf3>
  303614:	e1a06000 	mov	r6, r0
  303618:	e1a07001 	mov	r7, r1
  30361c:	e1a02006 	mov	r2, r6
  303620:	e1a03007 	mov	r3, r7
  303624:	e89d0003 	ldm	sp, {r0, r1}
  303628:	eb0024e4 	bl	30c9c0 <__aeabi_dsub>
  30362c:	e1a02000 	mov	r2, r0
  303630:	e1a03001 	mov	r3, r1
  303634:	e1a00008 	mov	r0, r8
  303638:	e1a01009 	mov	r1, r9
  30363c:	eb0024e0 	bl	30c9c4 <__adddf3>
  303640:	e15a000b 	cmp	sl, fp
  303644:	e58a0008 	str	r0, [sl, #8]
  303648:	e58a100c 	str	r1, [sl, #12]
  30364c:	e88a00c0 	stm	sl, {r6, r7}
  303650:	e1a08006 	mov	r8, r6
  303654:	e1a09007 	mov	r9, r7
  303658:	1affffe8 	bne	303600 <__kernel_rem_pio2+0x9e0>
  30365c:	e3540001 	cmp	r4, #1
  303660:	da00003b 	ble	303754 <__kernel_rem_pio2+0xb34>
  303664:	e28d3f9a 	add	r3, sp, #616	; 0x268
  303668:	e0833005 	add	r3, r3, r5
  30366c:	e2439d05 	sub	r9, r3, #320	; 0x140
  303670:	e8990300 	ldm	r9, {r8, r9}
  303674:	e08b4005 	add	r4, fp, r5
  303678:	e28dae13 	add	sl, sp, #304	; 0x130
  30367c:	e934000c 	ldmdb	r4!, {r2, r3}
  303680:	e1a00002 	mov	r0, r2
  303684:	e1a01003 	mov	r1, r3
  303688:	e1a02008 	mov	r2, r8
  30368c:	e1a03009 	mov	r3, r9
  303690:	e88d0003 	stm	sp, {r0, r1}
  303694:	eb0024ca 	bl	30c9c4 <__adddf3>
  303698:	e1a06000 	mov	r6, r0
  30369c:	e1a07001 	mov	r7, r1
  3036a0:	e1a02006 	mov	r2, r6
  3036a4:	e1a03007 	mov	r3, r7
  3036a8:	e89d0003 	ldm	sp, {r0, r1}
  3036ac:	eb0024c3 	bl	30c9c0 <__aeabi_dsub>
  3036b0:	e1a02008 	mov	r2, r8
  3036b4:	e1a03009 	mov	r3, r9
  3036b8:	eb0024c1 	bl	30c9c4 <__adddf3>
  3036bc:	e154000a 	cmp	r4, sl
  3036c0:	e5840008 	str	r0, [r4, #8]
  3036c4:	e584100c 	str	r1, [r4, #12]
  3036c8:	e88400c0 	stm	r4, {r6, r7}
  3036cc:	e1a08006 	mov	r8, r6
  3036d0:	e1a09007 	mov	r9, r7
  3036d4:	1affffe8 	bne	30367c <__kernel_rem_pio2+0xa5c>
  3036d8:	e3a03000 	mov	r3, #0
  3036dc:	e1a02003 	mov	r2, r3
  3036e0:	e2855008 	add	r5, r5, #8
  3036e4:	e08bb005 	add	fp, fp, r5
  3036e8:	e28d4f4e 	add	r4, sp, #312	; 0x138
  3036ec:	e1a00003 	mov	r0, r3
  3036f0:	e1a01002 	mov	r1, r2
  3036f4:	e93b000c 	ldmdb	fp!, {r2, r3}
  3036f8:	eb0024b1 	bl	30c9c4 <__adddf3>
  3036fc:	e15b0004 	cmp	fp, r4
  303700:	e1a03000 	mov	r3, r0
  303704:	e1a02001 	mov	r2, r1
  303708:	1afffff7 	bne	3036ec <__kernel_rem_pio2+0xacc>
  30370c:	e59d100c 	ldr	r1, [sp, #12]
  303710:	e3510000 	cmp	r1, #0
  303714:	0a000013 	beq	303768 <__kernel_rem_pio2+0xb48>
  303718:	e59d012c 	ldr	r0, [sp, #300]	; 0x12c
  30371c:	e59d1134 	ldr	r1, [sp, #308]	; 0x134
  303720:	e59d4020 	ldr	r4, [sp, #32]
  303724:	e59de128 	ldr	lr, [sp, #296]	; 0x128
  303728:	e59dc130 	ldr	ip, [sp, #304]	; 0x130
  30372c:	e2822102 	add	r2, r2, #-2147483648	; 0x80000000
  303730:	e2800102 	add	r0, r0, #-2147483648	; 0x80000000
  303734:	e2811102 	add	r1, r1, #-2147483648	; 0x80000000
  303738:	e5842014 	str	r2, [r4, #20]
  30373c:	e5843010 	str	r3, [r4, #16]
  303740:	e5840004 	str	r0, [r4, #4]
  303744:	e584100c 	str	r1, [r4, #12]
  303748:	e584e000 	str	lr, [r4]
  30374c:	e584c008 	str	ip, [r4, #8]
  303750:	eaffff67 	b	3034f4 <__kernel_rem_pio2+0x8d4>
  303754:	e3a03000 	mov	r3, #0
  303758:	e59d100c 	ldr	r1, [sp, #12]
  30375c:	e3510000 	cmp	r1, #0
  303760:	e1a02003 	mov	r2, r3
  303764:	1affffeb 	bne	303718 <__kernel_rem_pio2+0xaf8>
  303768:	e1a04003 	mov	r4, r3
  30376c:	e1a05002 	mov	r5, r2
  303770:	e59dc020 	ldr	ip, [sp, #32]
  303774:	e28d3f4a 	add	r3, sp, #296	; 0x128
  303778:	e893000c 	ldm	r3, {r2, r3}
  30377c:	e28d1e13 	add	r1, sp, #304	; 0x130
  303780:	e8910003 	ldm	r1, {r0, r1}
  303784:	e58c4010 	str	r4, [ip, #16]
  303788:	e58c5014 	str	r5, [ip, #20]
  30378c:	e88c000c 	stm	ip, {r2, r3}
  303790:	e58c0008 	str	r0, [ip, #8]
  303794:	e58c100c 	str	r1, [ip, #12]
  303798:	eaffff55 	b	3034f4 <__kernel_rem_pio2+0x8d4>
  30379c:	e1a00006 	mov	r0, r6
  3037a0:	e1a01007 	mov	r1, r7
  3037a4:	eb002702 	bl	30d3b4 <__aeabi_d2iz>
  3037a8:	e28d3f9a 	add	r3, sp, #616	; 0x268
  3037ac:	e1a04005 	mov	r4, r5
  3037b0:	e0835105 	add	r5, r3, r5, lsl #2
  3037b4:	e5050230 	str	r0, [r5, #-560]	; 0x230
  3037b8:	eafffeb9 	b	3032a4 <__kernel_rem_pio2+0x684>
  3037bc:	2aaaaaab 	bcs	fedae270 <__bss_end+0xfea9a270>
  3037c0:	0030e188 	eorseq	lr, r0, r8, lsl #3
  3037c4:	3e700000 	cdpcc	0, 7, cr0, cr0, cr0, {0}
  3037c8:	41700000 	cmnmi	r0, r0
  3037cc:	40200000 	eormi	r0, r0, r0
  3037d0:	3ff00000 	svccc	0x00f00000	; IMB
  3037d4:	3fe00000 	svccc	0x00e00000
  3037d8:	0030e198 	mlaseq	r0, r8, r1, lr
  3037dc:	00000000 	andeq	r0, r0, r0

003037e0 <__kernel_sin>:
  3037e0:	e92d4ff0 	push	{r4, r5, r6, r7, r8, r9, sl, fp, lr}
  3037e4:	e3c1c102 	bic	ip, r1, #-2147483648	; 0x80000000
  3037e8:	e35c05f9 	cmp	ip, #1044381696	; 0x3e400000
  3037ec:	e24dd014 	sub	sp, sp, #20
  3037f0:	e1a04001 	mov	r4, r1
  3037f4:	e1a08002 	mov	r8, r2
  3037f8:	e1a09003 	mov	r9, r3
  3037fc:	e1a05000 	mov	r5, r0
  303800:	aa000004 	bge	303818 <__kernel_sin+0x38>
  303804:	eb0026ea 	bl	30d3b4 <__aeabi_d2iz>
  303808:	e3500000 	cmp	r0, #0
  30380c:	01a00005 	moveq	r0, r5
  303810:	01a01004 	moveq	r1, r4
  303814:	0a000050 	beq	30395c <__kernel_sin+0x17c>
  303818:	e1a02005 	mov	r2, r5
  30381c:	e1a03004 	mov	r3, r4
  303820:	e1a00005 	mov	r0, r5
  303824:	e1a01004 	mov	r1, r4
  303828:	eb002569 	bl	30cdd4 <__aeabi_dmul>
  30382c:	e1a02005 	mov	r2, r5
  303830:	e1a03004 	mov	r3, r4
  303834:	e1a06000 	mov	r6, r0
  303838:	e1a07001 	mov	r7, r1
  30383c:	eb002564 	bl	30cdd4 <__aeabi_dmul>
  303840:	e28f3e16 	add	r3, pc, #352	; 0x160
  303844:	e893000c 	ldm	r3, {r2, r3}
  303848:	e1a0a000 	mov	sl, r0
  30384c:	e1a0b001 	mov	fp, r1
  303850:	e1a00006 	mov	r0, r6
  303854:	e1a01007 	mov	r1, r7
  303858:	eb00255d 	bl	30cdd4 <__aeabi_dmul>
  30385c:	e28f3f53 	add	r3, pc, #332	; 0x14c
  303860:	e893000c 	ldm	r3, {r2, r3}
  303864:	eb002455 	bl	30c9c0 <__aeabi_dsub>
  303868:	e1a02006 	mov	r2, r6
  30386c:	e1a03007 	mov	r3, r7
  303870:	eb002557 	bl	30cdd4 <__aeabi_dmul>
  303874:	e28f3f4f 	add	r3, pc, #316	; 0x13c
  303878:	e893000c 	ldm	r3, {r2, r3}
  30387c:	eb002450 	bl	30c9c4 <__adddf3>
  303880:	e1a02006 	mov	r2, r6
  303884:	e1a03007 	mov	r3, r7
  303888:	eb002551 	bl	30cdd4 <__aeabi_dmul>
  30388c:	e28f3f4b 	add	r3, pc, #300	; 0x12c
  303890:	e893000c 	ldm	r3, {r2, r3}
  303894:	eb002449 	bl	30c9c0 <__aeabi_dsub>
  303898:	e1a02006 	mov	r2, r6
  30389c:	e1a03007 	mov	r3, r7
  3038a0:	eb00254b 	bl	30cdd4 <__aeabi_dmul>
  3038a4:	e28f3f47 	add	r3, pc, #284	; 0x11c
  3038a8:	e893000c 	ldm	r3, {r2, r3}
  3038ac:	eb002444 	bl	30c9c4 <__adddf3>
  3038b0:	e59d3038 	ldr	r3, [sp, #56]	; 0x38
  3038b4:	e3530000 	cmp	r3, #0
  3038b8:	e88d0003 	stm	sp, {r0, r1}
  3038bc:	0a000029 	beq	303968 <__kernel_sin+0x188>
  3038c0:	e3a02000 	mov	r2, #0
  3038c4:	e59f310c 	ldr	r3, [pc, #268]	; 3039d8 <__kernel_sin+0x1f8>
  3038c8:	e1a00008 	mov	r0, r8
  3038cc:	e1a01009 	mov	r1, r9
  3038d0:	eb00253f 	bl	30cdd4 <__aeabi_dmul>
  3038d4:	e89d000c 	ldm	sp, {r2, r3}
  3038d8:	e58d0008 	str	r0, [sp, #8]
  3038dc:	e58d100c 	str	r1, [sp, #12]
  3038e0:	e1a0000a 	mov	r0, sl
  3038e4:	e1a0100b 	mov	r1, fp
  3038e8:	eb002539 	bl	30cdd4 <__aeabi_dmul>
  3038ec:	e1a02000 	mov	r2, r0
  3038f0:	e1a03001 	mov	r3, r1
  3038f4:	e28d1008 	add	r1, sp, #8
  3038f8:	e8910003 	ldm	r1, {r0, r1}
  3038fc:	eb00242f 	bl	30c9c0 <__aeabi_dsub>
  303900:	e1a02006 	mov	r2, r6
  303904:	e1a03007 	mov	r3, r7
  303908:	eb002531 	bl	30cdd4 <__aeabi_dmul>
  30390c:	e1a02008 	mov	r2, r8
  303910:	e1a03009 	mov	r3, r9
  303914:	eb002429 	bl	30c9c0 <__aeabi_dsub>
  303918:	e28f30b0 	add	r3, pc, #176	; 0xb0
  30391c:	e893000c 	ldm	r3, {r2, r3}
  303920:	e1a06000 	mov	r6, r0
  303924:	e1a07001 	mov	r7, r1
  303928:	e1a0000a 	mov	r0, sl
  30392c:	e1a0100b 	mov	r1, fp
  303930:	eb002527 	bl	30cdd4 <__aeabi_dmul>
  303934:	e1a02000 	mov	r2, r0
  303938:	e1a03001 	mov	r3, r1
  30393c:	e1a00006 	mov	r0, r6
  303940:	e1a01007 	mov	r1, r7
  303944:	eb00241e 	bl	30c9c4 <__adddf3>
  303948:	e1a02000 	mov	r2, r0
  30394c:	e1a03001 	mov	r3, r1
  303950:	e1a00005 	mov	r0, r5
  303954:	e1a01004 	mov	r1, r4
  303958:	eb002418 	bl	30c9c0 <__aeabi_dsub>
  30395c:	e28dd014 	add	sp, sp, #20
  303960:	e8bd4ff0 	pop	{r4, r5, r6, r7, r8, r9, sl, fp, lr}
  303964:	e12fff1e 	bx	lr
  303968:	e89d000c 	ldm	sp, {r2, r3}
  30396c:	e1a00006 	mov	r0, r6
  303970:	e1a01007 	mov	r1, r7
  303974:	eb002516 	bl	30cdd4 <__aeabi_dmul>
  303978:	e28f3050 	add	r3, pc, #80	; 0x50
  30397c:	e893000c 	ldm	r3, {r2, r3}
  303980:	eb00240e 	bl	30c9c0 <__aeabi_dsub>
  303984:	e1a0200a 	mov	r2, sl
  303988:	e1a0300b 	mov	r3, fp
  30398c:	eb002510 	bl	30cdd4 <__aeabi_dmul>
  303990:	e1a02005 	mov	r2, r5
  303994:	e1a03004 	mov	r3, r4
  303998:	eb002409 	bl	30c9c4 <__adddf3>
  30399c:	e28dd014 	add	sp, sp, #20
  3039a0:	e8bd4ff0 	pop	{r4, r5, r6, r7, r8, r9, sl, fp, lr}
  3039a4:	e12fff1e 	bx	lr
  3039a8:	5acfd57c 	bpl	ff6f8fa0 <__bss_end+0xff3e4fa0>
  3039ac:	3de5d93a 	stclcc	9, cr13, [r5, #232]!	; 0xe8
  3039b0:	8a2b9ceb 	bhi	dead64 <__bss_end+0xad6d64>
  3039b4:	3e5ae5e6 	cdpcc	5, 5, cr14, cr10, cr6, {7}
  3039b8:	57b1fe7d 			; <UNDEFINED> instruction: 0x57b1fe7d
  3039bc:	3ec71de3 	cdpcc	13, 12, cr1, cr7, cr3, {7}
  3039c0:	19c161d5 	stmibne	r1, {r0, r2, r4, r6, r7, r8, sp, lr}^
  3039c4:	3f2a01a0 	svccc	0x002a01a0
  3039c8:	1110f8a6 	tstne	r0, r6, lsr #17
  3039cc:	3f811111 	svccc	0x00811111
  3039d0:	55555549 	ldrbpl	r5, [r5, #-1353]	; 0x549
  3039d4:	3fc55555 	svccc	0x00c55555
  3039d8:	3fe00000 	svccc	0x00e00000

003039dc <fabs>:
  3039dc:	e3c11102 	bic	r1, r1, #-2147483648	; 0x80000000
  3039e0:	e12fff1e 	bx	lr

003039e4 <__fpclassifyd>:
  3039e4:	e1903001 	orrs	r3, r0, r1
  3039e8:	1a000001 	bne	3039f4 <__fpclassifyd+0x10>
  3039ec:	e3a00002 	mov	r0, #2
  3039f0:	e12fff1e 	bx	lr
  3039f4:	e2703001 	rsbs	r3, r0, #1
  3039f8:	33a03000 	movcc	r3, #0
  3039fc:	e3510102 	cmp	r1, #-2147483648	; 0x80000000
  303a00:	03500000 	cmpeq	r0, #0
  303a04:	0afffff8 	beq	3039ec <__fpclassifyd+0x8>
  303a08:	e3c11102 	bic	r1, r1, #-2147483648	; 0x80000000
  303a0c:	e59f2034 	ldr	r2, [pc, #52]	; 303a48 <__fpclassifyd+0x64>
  303a10:	e2410601 	sub	r0, r1, #1048576	; 0x100000
  303a14:	e1500002 	cmp	r0, r2
  303a18:	8a000001 	bhi	303a24 <__fpclassifyd+0x40>
  303a1c:	e3a00004 	mov	r0, #4
  303a20:	e12fff1e 	bx	lr
  303a24:	e3510601 	cmp	r1, #1048576	; 0x100000
  303a28:	2a000001 	bcs	303a34 <__fpclassifyd+0x50>
  303a2c:	e3a00003 	mov	r0, #3
  303a30:	e12fff1e 	bx	lr
  303a34:	e59f0010 	ldr	r0, [pc, #16]	; 303a4c <__fpclassifyd+0x68>
  303a38:	e1510000 	cmp	r1, r0
  303a3c:	13a00000 	movne	r0, #0
  303a40:	02030001 	andeq	r0, r3, #1
  303a44:	e12fff1e 	bx	lr
  303a48:	7fdfffff 	svcvc	0x00dfffff
  303a4c:	7ff00000 	svcvc	0x00f00000	; IMB

00303a50 <matherr>:
  303a50:	e3a00000 	mov	r0, #0
  303a54:	e12fff1e 	bx	lr

00303a58 <scalbn>:
  303a58:	e59f3178 	ldr	r3, [pc, #376]	; 303bd8 <scalbn+0x180>
  303a5c:	e0033001 	and	r3, r3, r1
  303a60:	e1b03a43 	asrs	r3, r3, #20
  303a64:	e92d4070 	push	{r4, r5, r6, lr}
  303a68:	e1a0c001 	mov	ip, r1
  303a6c:	e1a04000 	mov	r4, r0
  303a70:	e1a05001 	mov	r5, r1
  303a74:	e1a06002 	mov	r6, r2
  303a78:	1a00001d 	bne	303af4 <scalbn+0x9c>
  303a7c:	e3c1c102 	bic	ip, r1, #-2147483648	; 0x80000000
  303a80:	e19c3000 	orrs	r3, ip, r0
  303a84:	0a000018 	beq	303aec <scalbn+0x94>
  303a88:	e59f314c 	ldr	r3, [pc, #332]	; 303bdc <scalbn+0x184>
  303a8c:	e3a02000 	mov	r2, #0
  303a90:	eb0024cf 	bl	30cdd4 <__aeabi_dmul>
  303a94:	e59f3144 	ldr	r3, [pc, #324]	; 303be0 <scalbn+0x188>
  303a98:	e1560003 	cmp	r6, r3
  303a9c:	e1a04000 	mov	r4, r0
  303aa0:	e1a05001 	mov	r5, r1
  303aa4:	e1a0c001 	mov	ip, r1
  303aa8:	ba00002b 	blt	303b5c <scalbn+0x104>
  303aac:	e59f3124 	ldr	r3, [pc, #292]	; 303bd8 <scalbn+0x180>
  303ab0:	e0033001 	and	r3, r3, r1
  303ab4:	e1a03a43 	asr	r3, r3, #20
  303ab8:	e2433036 	sub	r3, r3, #54	; 0x36
  303abc:	e59f2120 	ldr	r2, [pc, #288]	; 303be4 <scalbn+0x18c>
  303ac0:	e0833006 	add	r3, r3, r6
  303ac4:	e1530002 	cmp	r3, r2
  303ac8:	da000010 	ble	303b10 <scalbn+0xb8>
  303acc:	e1a02004 	mov	r2, r4
  303ad0:	e1a03005 	mov	r3, r5
  303ad4:	e28f10ec 	add	r1, pc, #236	; 0xec
  303ad8:	e8910003 	ldm	r1, {r0, r1}
  303adc:	eb000044 	bl	303bf4 <copysign>
  303ae0:	e28f30e0 	add	r3, pc, #224	; 0xe0
  303ae4:	e893000c 	ldm	r3, {r2, r3}
  303ae8:	eb0024b9 	bl	30cdd4 <__aeabi_dmul>
  303aec:	e8bd4070 	pop	{r4, r5, r6, lr}
  303af0:	e12fff1e 	bx	lr
  303af4:	e59f20ec 	ldr	r2, [pc, #236]	; 303be8 <scalbn+0x190>
  303af8:	e1530002 	cmp	r3, r2
  303afc:	0a00001b 	beq	303b70 <scalbn+0x118>
  303b00:	e59f20dc 	ldr	r2, [pc, #220]	; 303be4 <scalbn+0x18c>
  303b04:	e0833006 	add	r3, r3, r6
  303b08:	e1530002 	cmp	r3, r2
  303b0c:	caffffee 	bgt	303acc <scalbn+0x74>
  303b10:	e3530000 	cmp	r3, #0
  303b14:	da000006 	ble	303b34 <scalbn+0xdc>
  303b18:	e3ccc47f 	bic	ip, ip, #2130706432	; 0x7f000000
  303b1c:	e3ccc60f 	bic	ip, ip, #15728640	; 0xf00000
  303b20:	e18c5a03 	orr	r5, ip, r3, lsl #20
  303b24:	e1a00004 	mov	r0, r4
  303b28:	e1a01005 	mov	r1, r5
  303b2c:	e8bd4070 	pop	{r4, r5, r6, lr}
  303b30:	e12fff1e 	bx	lr
  303b34:	e3730035 	cmn	r3, #53	; 0x35
  303b38:	aa000011 	bge	303b84 <scalbn+0x12c>
  303b3c:	e59f30a8 	ldr	r3, [pc, #168]	; 303bec <scalbn+0x194>
  303b40:	e1560003 	cmp	r6, r3
  303b44:	e1a02004 	mov	r2, r4
  303b48:	e1a03005 	mov	r3, r5
  303b4c:	ca000016 	bgt	303bac <scalbn+0x154>
  303b50:	e28f1078 	add	r1, pc, #120	; 0x78
  303b54:	e8910003 	ldm	r1, {r0, r1}
  303b58:	eb000025 	bl	303bf4 <copysign>
  303b5c:	e28f306c 	add	r3, pc, #108	; 0x6c
  303b60:	e893000c 	ldm	r3, {r2, r3}
  303b64:	eb00249a 	bl	30cdd4 <__aeabi_dmul>
  303b68:	e8bd4070 	pop	{r4, r5, r6, lr}
  303b6c:	e12fff1e 	bx	lr
  303b70:	e1a02000 	mov	r2, r0
  303b74:	e1a03001 	mov	r3, r1
  303b78:	eb002391 	bl	30c9c4 <__adddf3>
  303b7c:	e8bd4070 	pop	{r4, r5, r6, lr}
  303b80:	e12fff1e 	bx	lr
  303b84:	e3ccc47f 	bic	ip, ip, #2130706432	; 0x7f000000
  303b88:	e3ccc60f 	bic	ip, ip, #15728640	; 0xf00000
  303b8c:	e2833036 	add	r3, r3, #54	; 0x36
  303b90:	e18c5a03 	orr	r5, ip, r3, lsl #20
  303b94:	e1a00004 	mov	r0, r4
  303b98:	e1a01005 	mov	r1, r5
  303b9c:	e3a02000 	mov	r2, #0
  303ba0:	e59f3048 	ldr	r3, [pc, #72]	; 303bf0 <scalbn+0x198>
  303ba4:	eb00248a 	bl	30cdd4 <__aeabi_dmul>
  303ba8:	eaffffcf 	b	303aec <scalbn+0x94>
  303bac:	e28f1014 	add	r1, pc, #20
  303bb0:	e8910003 	ldm	r1, {r0, r1}
  303bb4:	eb00000e 	bl	303bf4 <copysign>
  303bb8:	e28f3008 	add	r3, pc, #8
  303bbc:	e893000c 	ldm	r3, {r2, r3}
  303bc0:	eb002483 	bl	30cdd4 <__aeabi_dmul>
  303bc4:	eaffffc8 	b	303aec <scalbn+0x94>
  303bc8:	8800759c 	stmdahi	r0, {r2, r3, r4, r7, r8, sl, ip, sp, lr}
  303bcc:	7e37e43c 	mrcvc	4, 1, lr, cr7, cr12, {1}
  303bd0:	c2f8f359 	rscsgt	pc, r8, #1677721601	; 0x64000001
  303bd4:	01a56e1f 			; <UNDEFINED> instruction: 0x01a56e1f
  303bd8:	7ff00000 	svcvc	0x00f00000	; IMB
  303bdc:	43500000 	cmpmi	r0, #0
  303be0:	ffff3cb0 			; <UNDEFINED> instruction: 0xffff3cb0
  303be4:	000007fe 	strdeq	r0, [r0], -lr
  303be8:	000007ff 	strdeq	r0, [r0], -pc	; <UNPREDICTABLE>
  303bec:	0000c350 	andeq	ip, r0, r0, asr r3
  303bf0:	3c900000 	ldccc	0, cr0, [r0], {0}

00303bf4 <copysign>:
  303bf4:	e2033102 	and	r3, r3, #-2147483648	; 0x80000000
  303bf8:	e3c12102 	bic	r2, r1, #-2147483648	; 0x80000000
  303bfc:	e1831002 	orr	r1, r3, r2
  303c00:	e12fff1e 	bx	lr

00303c04 <__errno>:
  303c04:	e59f3004 	ldr	r3, [pc, #4]	; 303c10 <__errno+0xc>
  303c08:	e5930000 	ldr	r0, [r3]
  303c0c:	e12fff1e 	bx	lr
  303c10:	0030f008 	eorseq	pc, r0, r8

00303c14 <exit>:
  303c14:	e92d4008 	push	{r3, lr}
  303c18:	e3a01000 	mov	r1, #0
  303c1c:	e1a04000 	mov	r4, r0
  303c20:	eb000a45 	bl	30653c <__call_exitprocs>
  303c24:	e59f3018 	ldr	r3, [pc, #24]	; 303c44 <exit+0x30>
  303c28:	e5930000 	ldr	r0, [r3]
  303c2c:	e590303c 	ldr	r3, [r0, #60]	; 0x3c
  303c30:	e3530000 	cmp	r3, #0
  303c34:	11a0e00f 	movne	lr, pc
  303c38:	112fff13 	bxne	r3
  303c3c:	e1a00004 	mov	r0, r4
  303c40:	ebfff7bb 	bl	301b34 <_exit>
  303c44:	0030e1d8 	ldrsbteq	lr, [r0], -r8

00303c48 <_fprintf_r>:
  303c48:	e92d000c 	push	{r2, r3}
  303c4c:	e52de004 	push	{lr}		; (str lr, [sp, #-4]!)
  303c50:	e24dd00c 	sub	sp, sp, #12
  303c54:	e28dc014 	add	ip, sp, #20
  303c58:	e1a0300c 	mov	r3, ip
  303c5c:	e59d2010 	ldr	r2, [sp, #16]
  303c60:	e58dc004 	str	ip, [sp, #4]
  303c64:	eb000253 	bl	3045b8 <_vfprintf_r>
  303c68:	e28dd00c 	add	sp, sp, #12
  303c6c:	e49de004 	pop	{lr}		; (ldr lr, [sp], #4)
  303c70:	e28dd008 	add	sp, sp, #8
  303c74:	e12fff1e 	bx	lr

00303c78 <fprintf>:
  303c78:	e92d000e 	push	{r1, r2, r3}
  303c7c:	e52de004 	push	{lr}		; (str lr, [sp, #-4]!)
  303c80:	e59f302c 	ldr	r3, [pc, #44]	; 303cb4 <fprintf+0x3c>
  303c84:	e24dd008 	sub	sp, sp, #8
  303c88:	e28dc010 	add	ip, sp, #16
  303c8c:	e1a01000 	mov	r1, r0
  303c90:	e59d200c 	ldr	r2, [sp, #12]
  303c94:	e5930000 	ldr	r0, [r3]
  303c98:	e1a0300c 	mov	r3, ip
  303c9c:	e58dc004 	str	ip, [sp, #4]
  303ca0:	eb000244 	bl	3045b8 <_vfprintf_r>
  303ca4:	e28dd008 	add	sp, sp, #8
  303ca8:	e49de004 	pop	{lr}		; (ldr lr, [sp], #4)
  303cac:	e28dd00c 	add	sp, sp, #12
  303cb0:	e12fff1e 	bx	lr
  303cb4:	0030f008 	eorseq	pc, r0, r8

00303cb8 <malloc>:
  303cb8:	e92d4008 	push	{r3, lr}
  303cbc:	e59f3010 	ldr	r3, [pc, #16]	; 303cd4 <malloc+0x1c>
  303cc0:	e1a01000 	mov	r1, r0
  303cc4:	e5930000 	ldr	r0, [r3]
  303cc8:	eb00000a 	bl	303cf8 <_malloc_r>
  303ccc:	e8bd4008 	pop	{r3, lr}
  303cd0:	e12fff1e 	bx	lr
  303cd4:	0030f008 	eorseq	pc, r0, r8

00303cd8 <free>:
  303cd8:	e92d4008 	push	{r3, lr}
  303cdc:	e59f3010 	ldr	r3, [pc, #16]	; 303cf4 <free+0x1c>
  303ce0:	e1a01000 	mov	r1, r0
  303ce4:	e5930000 	ldr	r0, [r3]
  303ce8:	eb001245 	bl	308604 <_free_r>
  303cec:	e8bd4008 	pop	{r3, lr}
  303cf0:	e12fff1e 	bx	lr
  303cf4:	0030f008 	eorseq	pc, r0, r8

00303cf8 <_malloc_r>:
  303cf8:	e92d4ff0 	push	{r4, r5, r6, r7, r8, r9, sl, fp, lr}
  303cfc:	e281500b 	add	r5, r1, #11
  303d00:	e3550016 	cmp	r5, #22
  303d04:	e24dd00c 	sub	sp, sp, #12
  303d08:	e1a06000 	mov	r6, r0
  303d0c:	9a00001f 	bls	303d90 <_malloc_r+0x98>
  303d10:	e3c55007 	bic	r5, r5, #7
  303d14:	e1510005 	cmp	r1, r5
  303d18:	93a01000 	movls	r1, #0
  303d1c:	83a01001 	movhi	r1, #1
  303d20:	e1913fa5 	orrs	r3, r1, r5, lsr #31
  303d24:	1a000083 	bne	303f38 <_malloc_r+0x240>
  303d28:	eb0001f2 	bl	3044f8 <__malloc_lock>
  303d2c:	e3550f7e 	cmp	r5, #504	; 0x1f8
  303d30:	2a00001b 	bcs	303da4 <_malloc_r+0xac>
  303d34:	e59f76e4 	ldr	r7, [pc, #1764]	; 304420 <_malloc_r+0x728>
  303d38:	e1a001a5 	lsr	r0, r5, #3
  303d3c:	e0873180 	add	r3, r7, r0, lsl #3
  303d40:	e593400c 	ldr	r4, [r3, #12]
  303d44:	e1540003 	cmp	r4, r3
  303d48:	0a00010d 	beq	304184 <_malloc_r+0x48c>
  303d4c:	e5943004 	ldr	r3, [r4, #4]
  303d50:	e3c33003 	bic	r3, r3, #3
  303d54:	e0843003 	add	r3, r4, r3
  303d58:	e5932004 	ldr	r2, [r3, #4]
  303d5c:	e594100c 	ldr	r1, [r4, #12]
  303d60:	e594c008 	ldr	ip, [r4, #8]
  303d64:	e3822001 	orr	r2, r2, #1
  303d68:	e58c100c 	str	r1, [ip, #12]
  303d6c:	e1a00006 	mov	r0, r6
  303d70:	e581c008 	str	ip, [r1, #8]
  303d74:	e5832004 	str	r2, [r3, #4]
  303d78:	eb0001df 	bl	3044fc <__malloc_unlock>
  303d7c:	e2844008 	add	r4, r4, #8
  303d80:	e1a00004 	mov	r0, r4
  303d84:	e28dd00c 	add	sp, sp, #12
  303d88:	e8bd4ff0 	pop	{r4, r5, r6, r7, r8, r9, sl, fp, lr}
  303d8c:	e12fff1e 	bx	lr
  303d90:	e3510010 	cmp	r1, #16
  303d94:	8a000067 	bhi	303f38 <_malloc_r+0x240>
  303d98:	eb0001d6 	bl	3044f8 <__malloc_lock>
  303d9c:	e3a05010 	mov	r5, #16
  303da0:	eaffffe3 	b	303d34 <_malloc_r+0x3c>
  303da4:	e1b004a5 	lsrs	r0, r5, #9
  303da8:	03a0107e 	moveq	r1, #126	; 0x7e
  303dac:	03a0003f 	moveq	r0, #63	; 0x3f
  303db0:	1a000067 	bne	303f54 <_malloc_r+0x25c>
  303db4:	e59f7664 	ldr	r7, [pc, #1636]	; 304420 <_malloc_r+0x728>
  303db8:	e0871101 	add	r1, r7, r1, lsl #2
  303dbc:	e591400c 	ldr	r4, [r1, #12]
  303dc0:	e1510004 	cmp	r1, r4
  303dc4:	1a000005 	bne	303de0 <_malloc_r+0xe8>
  303dc8:	ea00000a 	b	303df8 <_malloc_r+0x100>
  303dcc:	e3520000 	cmp	r2, #0
  303dd0:	aaffffdf 	bge	303d54 <_malloc_r+0x5c>
  303dd4:	e594400c 	ldr	r4, [r4, #12]
  303dd8:	e1510004 	cmp	r1, r4
  303ddc:	0a000005 	beq	303df8 <_malloc_r+0x100>
  303de0:	e5943004 	ldr	r3, [r4, #4]
  303de4:	e3c33003 	bic	r3, r3, #3
  303de8:	e0652003 	rsb	r2, r5, r3
  303dec:	e352000f 	cmp	r2, #15
  303df0:	dafffff5 	ble	303dcc <_malloc_r+0xd4>
  303df4:	e2400001 	sub	r0, r0, #1
  303df8:	e2800001 	add	r0, r0, #1
  303dfc:	e59f161c 	ldr	r1, [pc, #1564]	; 304420 <_malloc_r+0x728>
  303e00:	e5974010 	ldr	r4, [r7, #16]
  303e04:	e281c008 	add	ip, r1, #8
  303e08:	e154000c 	cmp	r4, ip
  303e0c:	05913004 	ldreq	r3, [r1, #4]
  303e10:	0a000016 	beq	303e70 <_malloc_r+0x178>
  303e14:	e5943004 	ldr	r3, [r4, #4]
  303e18:	e3c33003 	bic	r3, r3, #3
  303e1c:	e0652003 	rsb	r2, r5, r3
  303e20:	e352000f 	cmp	r2, #15
  303e24:	ca0000c4 	bgt	30413c <_malloc_r+0x444>
  303e28:	e3520000 	cmp	r2, #0
  303e2c:	e581c014 	str	ip, [r1, #20]
  303e30:	e581c010 	str	ip, [r1, #16]
  303e34:	aa00004c 	bge	303f6c <_malloc_r+0x274>
  303e38:	e3530c02 	cmp	r3, #512	; 0x200
  303e3c:	2a00009f 	bcs	3040c0 <_malloc_r+0x3c8>
  303e40:	e3a09001 	mov	r9, #1
  303e44:	e1a0e1a3 	lsr	lr, r3, #3
  303e48:	e081818e 	add	r8, r1, lr, lsl #3
  303e4c:	e5912004 	ldr	r2, [r1, #4]
  303e50:	e1a0314e 	asr	r3, lr, #2
  303e54:	e598e008 	ldr	lr, [r8, #8]
  303e58:	e1823319 	orr	r3, r2, r9, lsl r3
  303e5c:	e584e008 	str	lr, [r4, #8]
  303e60:	e584800c 	str	r8, [r4, #12]
  303e64:	e5813004 	str	r3, [r1, #4]
  303e68:	e5884008 	str	r4, [r8, #8]
  303e6c:	e58e400c 	str	r4, [lr, #12]
  303e70:	e3a0e001 	mov	lr, #1
  303e74:	e1a02140 	asr	r2, r0, #2
  303e78:	e1a0e21e 	lsl	lr, lr, r2
  303e7c:	e15e0003 	cmp	lr, r3
  303e80:	8a000044 	bhi	303f98 <_malloc_r+0x2a0>
  303e84:	e113000e 	tst	r3, lr
  303e88:	1a000008 	bne	303eb0 <_malloc_r+0x1b8>
  303e8c:	e1a0e08e 	lsl	lr, lr, #1
  303e90:	e3c00003 	bic	r0, r0, #3
  303e94:	e113000e 	tst	r3, lr
  303e98:	e2800004 	add	r0, r0, #4
  303e9c:	1a000003 	bne	303eb0 <_malloc_r+0x1b8>
  303ea0:	e1a0e08e 	lsl	lr, lr, #1
  303ea4:	e113000e 	tst	r3, lr
  303ea8:	e2800004 	add	r0, r0, #4
  303eac:	0afffffb 	beq	303ea0 <_malloc_r+0x1a8>
  303eb0:	e0878180 	add	r8, r7, r0, lsl #3
  303eb4:	e1a04008 	mov	r4, r8
  303eb8:	e1a09000 	mov	r9, r0
  303ebc:	e594300c 	ldr	r3, [r4, #12]
  303ec0:	e1540003 	cmp	r4, r3
  303ec4:	1a000005 	bne	303ee0 <_malloc_r+0x1e8>
  303ec8:	ea0000a8 	b	304170 <_malloc_r+0x478>
  303ecc:	e3510000 	cmp	r1, #0
  303ed0:	aa0000b1 	bge	30419c <_malloc_r+0x4a4>
  303ed4:	e593300c 	ldr	r3, [r3, #12]
  303ed8:	e1540003 	cmp	r4, r3
  303edc:	0a0000a3 	beq	304170 <_malloc_r+0x478>
  303ee0:	e5932004 	ldr	r2, [r3, #4]
  303ee4:	e3c22003 	bic	r2, r2, #3
  303ee8:	e0651002 	rsb	r1, r5, r2
  303eec:	e351000f 	cmp	r1, #15
  303ef0:	dafffff5 	ble	303ecc <_malloc_r+0x1d4>
  303ef4:	e1a04003 	mov	r4, r3
  303ef8:	e593200c 	ldr	r2, [r3, #12]
  303efc:	e5b4e008 	ldr	lr, [r4, #8]!
  303f00:	e3859001 	orr	r9, r5, #1
  303f04:	e3818001 	orr	r8, r1, #1
  303f08:	e0835005 	add	r5, r3, r5
  303f0c:	e5839004 	str	r9, [r3, #4]
  303f10:	e1a00006 	mov	r0, r6
  303f14:	e58e200c 	str	r2, [lr, #12]
  303f18:	e582e008 	str	lr, [r2, #8]
  303f1c:	e5875014 	str	r5, [r7, #20]
  303f20:	e5875010 	str	r5, [r7, #16]
  303f24:	e585c00c 	str	ip, [r5, #12]
  303f28:	e9851100 	stmib	r5, {r8, ip}
  303f2c:	e7851001 	str	r1, [r5, r1]
  303f30:	eb000171 	bl	3044fc <__malloc_unlock>
  303f34:	eaffff91 	b	303d80 <_malloc_r+0x88>
  303f38:	e3a04000 	mov	r4, #0
  303f3c:	e3a0300c 	mov	r3, #12
  303f40:	e1a00004 	mov	r0, r4
  303f44:	e5863000 	str	r3, [r6]
  303f48:	e28dd00c 	add	sp, sp, #12
  303f4c:	e8bd4ff0 	pop	{r4, r5, r6, r7, r8, r9, sl, fp, lr}
  303f50:	e12fff1e 	bx	lr
  303f54:	e3500004 	cmp	r0, #4
  303f58:	8a00004e 	bhi	304098 <_malloc_r+0x3a0>
  303f5c:	e1a00325 	lsr	r0, r5, #6
  303f60:	e2800038 	add	r0, r0, #56	; 0x38
  303f64:	e1a01080 	lsl	r1, r0, #1
  303f68:	eaffff91 	b	303db4 <_malloc_r+0xbc>
  303f6c:	e0843003 	add	r3, r4, r3
  303f70:	e5932004 	ldr	r2, [r3, #4]
  303f74:	e3822001 	orr	r2, r2, #1
  303f78:	e1a00006 	mov	r0, r6
  303f7c:	e5832004 	str	r2, [r3, #4]
  303f80:	e2844008 	add	r4, r4, #8
  303f84:	eb00015c 	bl	3044fc <__malloc_unlock>
  303f88:	e1a00004 	mov	r0, r4
  303f8c:	e28dd00c 	add	sp, sp, #12
  303f90:	e8bd4ff0 	pop	{r4, r5, r6, r7, r8, r9, sl, fp, lr}
  303f94:	e12fff1e 	bx	lr
  303f98:	e5974008 	ldr	r4, [r7, #8]
  303f9c:	e5948004 	ldr	r8, [r4, #4]
  303fa0:	e3c88003 	bic	r8, r8, #3
  303fa4:	e1580005 	cmp	r8, r5
  303fa8:	23a02000 	movcs	r2, #0
  303fac:	33a02001 	movcc	r2, #1
  303fb0:	e0653008 	rsb	r3, r5, r8
  303fb4:	e353000f 	cmp	r3, #15
  303fb8:	d3822001 	orrle	r2, r2, #1
  303fbc:	e3520000 	cmp	r2, #0
  303fc0:	e59f2458 	ldr	r2, [pc, #1112]	; 304420 <_malloc_r+0x728>
  303fc4:	0a000026 	beq	304064 <_malloc_r+0x36c>
  303fc8:	e59f9454 	ldr	r9, [pc, #1108]	; 304424 <_malloc_r+0x72c>
  303fcc:	e5922408 	ldr	r2, [r2, #1032]	; 0x408
  303fd0:	e5993000 	ldr	r3, [r9]
  303fd4:	e3720001 	cmn	r2, #1
  303fd8:	e0853003 	add	r3, r5, r3
  303fdc:	12833a01 	addne	r3, r3, #4096	; 0x1000
  303fe0:	1283300f 	addne	r3, r3, #15
  303fe4:	13c33eff 	bicne	r3, r3, #4080	; 0xff0
  303fe8:	0283a010 	addeq	sl, r3, #16
  303fec:	13c3a00f 	bicne	sl, r3, #15
  303ff0:	e1a00006 	mov	r0, r6
  303ff4:	e1a0100a 	mov	r1, sl
  303ff8:	eb00015d 	bl	304574 <_sbrk_r>
  303ffc:	e3700001 	cmn	r0, #1
  304000:	e1a0b000 	mov	fp, r0
  304004:	0a0000e6 	beq	3043a4 <_malloc_r+0x6ac>
  304008:	e0542007 	subs	r2, r4, r7
  30400c:	e0843008 	add	r3, r4, r8
  304010:	13a02001 	movne	r2, #1
  304014:	e1540007 	cmp	r4, r7
  304018:	11530000 	cmpne	r3, r0
  30401c:	e58d2004 	str	r2, [sp, #4]
  304020:	e59f03f8 	ldr	r0, [pc, #1016]	; 304420 <_malloc_r+0x728>
  304024:	9a000086 	bls	304244 <_malloc_r+0x54c>
  304028:	e5904008 	ldr	r4, [r0, #8]
  30402c:	e5943004 	ldr	r3, [r4, #4]
  304030:	e3c33003 	bic	r3, r3, #3
  304034:	e1550003 	cmp	r5, r3
  304038:	93a02000 	movls	r2, #0
  30403c:	83a02001 	movhi	r2, #1
  304040:	e0653003 	rsb	r3, r5, r3
  304044:	e353000f 	cmp	r3, #15
  304048:	d3822001 	orrle	r2, r2, #1
  30404c:	e3520000 	cmp	r2, #0
  304050:	0a000003 	beq	304064 <_malloc_r+0x36c>
  304054:	e1a00006 	mov	r0, r6
  304058:	eb000127 	bl	3044fc <__malloc_unlock>
  30405c:	e3a04000 	mov	r4, #0
  304060:	eaffff46 	b	303d80 <_malloc_r+0x88>
  304064:	e3852001 	orr	r2, r5, #1
  304068:	e3833001 	orr	r3, r3, #1
  30406c:	e0845005 	add	r5, r4, r5
  304070:	e5842004 	str	r2, [r4, #4]
  304074:	e1a00006 	mov	r0, r6
  304078:	e5875008 	str	r5, [r7, #8]
  30407c:	e2844008 	add	r4, r4, #8
  304080:	e5853004 	str	r3, [r5, #4]
  304084:	eb00011c 	bl	3044fc <__malloc_unlock>
  304088:	e1a00004 	mov	r0, r4
  30408c:	e28dd00c 	add	sp, sp, #12
  304090:	e8bd4ff0 	pop	{r4, r5, r6, r7, r8, r9, sl, fp, lr}
  304094:	e12fff1e 	bx	lr
  304098:	e3500014 	cmp	r0, #20
  30409c:	9280005b 	addls	r0, r0, #91	; 0x5b
  3040a0:	91a01080 	lslls	r1, r0, #1
  3040a4:	9affff42 	bls	303db4 <_malloc_r+0xbc>
  3040a8:	e3500054 	cmp	r0, #84	; 0x54
  3040ac:	8a0000a7 	bhi	304350 <_malloc_r+0x658>
  3040b0:	e1a00625 	lsr	r0, r5, #12
  3040b4:	e280006e 	add	r0, r0, #110	; 0x6e
  3040b8:	e1a01080 	lsl	r1, r0, #1
  3040bc:	eaffff3c 	b	303db4 <_malloc_r+0xbc>
  3040c0:	e1a024a3 	lsr	r2, r3, #9
  3040c4:	e3520004 	cmp	r2, #4
  3040c8:	9a00003f 	bls	3041cc <_malloc_r+0x4d4>
  3040cc:	e3520014 	cmp	r2, #20
  3040d0:	9282105b 	addls	r1, r2, #91	; 0x5b
  3040d4:	91a0e081 	lslls	lr, r1, #1
  3040d8:	9a000004 	bls	3040f0 <_malloc_r+0x3f8>
  3040dc:	e3520054 	cmp	r2, #84	; 0x54
  3040e0:	8a0000bf 	bhi	3043e4 <_malloc_r+0x6ec>
  3040e4:	e1a02623 	lsr	r2, r3, #12
  3040e8:	e282106e 	add	r1, r2, #110	; 0x6e
  3040ec:	e1a0e081 	lsl	lr, r1, #1
  3040f0:	e087e10e 	add	lr, r7, lr, lsl #2
  3040f4:	e59e2008 	ldr	r2, [lr, #8]
  3040f8:	e152000e 	cmp	r2, lr
  3040fc:	e59f831c 	ldr	r8, [pc, #796]	; 304420 <_malloc_r+0x728>
  304100:	0a000098 	beq	304368 <_malloc_r+0x670>
  304104:	e5921004 	ldr	r1, [r2, #4]
  304108:	e3c11003 	bic	r1, r1, #3
  30410c:	e1530001 	cmp	r3, r1
  304110:	2a000002 	bcs	304120 <_malloc_r+0x428>
  304114:	e5922008 	ldr	r2, [r2, #8]
  304118:	e15e0002 	cmp	lr, r2
  30411c:	1afffff8 	bne	304104 <_malloc_r+0x40c>
  304120:	e592100c 	ldr	r1, [r2, #12]
  304124:	e5973004 	ldr	r3, [r7, #4]
  304128:	e584100c 	str	r1, [r4, #12]
  30412c:	e5842008 	str	r2, [r4, #8]
  304130:	e5814008 	str	r4, [r1, #8]
  304134:	e582400c 	str	r4, [r2, #12]
  304138:	eaffff4c 	b	303e70 <_malloc_r+0x178>
  30413c:	e385e001 	orr	lr, r5, #1
  304140:	e3823001 	orr	r3, r2, #1
  304144:	e0845005 	add	r5, r4, r5
  304148:	e584e004 	str	lr, [r4, #4]
  30414c:	e1a00006 	mov	r0, r6
  304150:	e5815014 	str	r5, [r1, #20]
  304154:	e5815010 	str	r5, [r1, #16]
  304158:	e585c00c 	str	ip, [r5, #12]
  30415c:	e9851008 	stmib	r5, {r3, ip}
  304160:	e7852002 	str	r2, [r5, r2]
  304164:	e2844008 	add	r4, r4, #8
  304168:	eb0000e3 	bl	3044fc <__malloc_unlock>
  30416c:	eaffff03 	b	303d80 <_malloc_r+0x88>
  304170:	e2899001 	add	r9, r9, #1
  304174:	e3190003 	tst	r9, #3
  304178:	e2844008 	add	r4, r4, #8
  30417c:	1affff4e 	bne	303ebc <_malloc_r+0x1c4>
  304180:	ea000019 	b	3041ec <_malloc_r+0x4f4>
  304184:	e2843008 	add	r3, r4, #8
  304188:	e5944014 	ldr	r4, [r4, #20]
  30418c:	e1530004 	cmp	r3, r4
  304190:	02800002 	addeq	r0, r0, #2
  304194:	0affff18 	beq	303dfc <_malloc_r+0x104>
  304198:	eafffeeb 	b	303d4c <_malloc_r+0x54>
  30419c:	e1a04003 	mov	r4, r3
  3041a0:	e0832002 	add	r2, r3, r2
  3041a4:	e5921004 	ldr	r1, [r2, #4]
  3041a8:	e593c00c 	ldr	ip, [r3, #12]
  3041ac:	e5b4e008 	ldr	lr, [r4, #8]!
  3041b0:	e3813001 	orr	r3, r1, #1
  3041b4:	e5823004 	str	r3, [r2, #4]
  3041b8:	e1a00006 	mov	r0, r6
  3041bc:	e58ec00c 	str	ip, [lr, #12]
  3041c0:	e58ce008 	str	lr, [ip, #8]
  3041c4:	eb0000cc 	bl	3044fc <__malloc_unlock>
  3041c8:	eafffeec 	b	303d80 <_malloc_r+0x88>
  3041cc:	e1a02323 	lsr	r2, r3, #6
  3041d0:	e2821038 	add	r1, r2, #56	; 0x38
  3041d4:	e1a0e081 	lsl	lr, r1, #1
  3041d8:	eaffffc4 	b	3040f0 <_malloc_r+0x3f8>
  3041dc:	e5988000 	ldr	r8, [r8]
  3041e0:	e1580003 	cmp	r8, r3
  3041e4:	e2400001 	sub	r0, r0, #1
  3041e8:	1a00008a 	bne	304418 <_malloc_r+0x720>
  3041ec:	e3100003 	tst	r0, #3
  3041f0:	e2483008 	sub	r3, r8, #8
  3041f4:	1afffff8 	bne	3041dc <_malloc_r+0x4e4>
  3041f8:	e5973004 	ldr	r3, [r7, #4]
  3041fc:	e1c3300e 	bic	r3, r3, lr
  304200:	e5873004 	str	r3, [r7, #4]
  304204:	e1a0e08e 	lsl	lr, lr, #1
  304208:	e15e0003 	cmp	lr, r3
  30420c:	83a02000 	movhi	r2, #0
  304210:	93a02001 	movls	r2, #1
  304214:	e35e0000 	cmp	lr, #0
  304218:	03a02000 	moveq	r2, #0
  30421c:	e3520000 	cmp	r2, #0
  304220:	0affff5c 	beq	303f98 <_malloc_r+0x2a0>
  304224:	e113000e 	tst	r3, lr
  304228:	e1a00009 	mov	r0, r9
  30422c:	1affff1f 	bne	303eb0 <_malloc_r+0x1b8>
  304230:	e1a0e08e 	lsl	lr, lr, #1
  304234:	e113000e 	tst	r3, lr
  304238:	e2800004 	add	r0, r0, #4
  30423c:	0afffffb 	beq	304230 <_malloc_r+0x538>
  304240:	eaffff1a 	b	303eb0 <_malloc_r+0x1b8>
  304244:	e5991004 	ldr	r1, [r9, #4]
  304248:	e153000b 	cmp	r3, fp
  30424c:	e08a1001 	add	r1, sl, r1
  304250:	e5891004 	str	r1, [r9, #4]
  304254:	0a000056 	beq	3043b4 <_malloc_r+0x6bc>
  304258:	e5970408 	ldr	r0, [r7, #1032]	; 0x408
  30425c:	e3700001 	cmn	r0, #1
  304260:	1063300b 	rsbne	r3, r3, fp
  304264:	e59f01b4 	ldr	r0, [pc, #436]	; 304420 <_malloc_r+0x728>
  304268:	10811003 	addne	r1, r1, r3
  30426c:	15891004 	strne	r1, [r9, #4]
  304270:	0580b408 	streq	fp, [r0, #1032]	; 0x408
  304274:	e21b3007 	ands	r3, fp, #7
  304278:	03a01a01 	moveq	r1, #4096	; 0x1000
  30427c:	12631008 	rsbne	r1, r3, #8
  304280:	108bb001 	addne	fp, fp, r1
  304284:	12633a01 	rsbne	r3, r3, #4096	; 0x1000
  304288:	12831008 	addne	r1, r3, #8
  30428c:	e08b300a 	add	r3, fp, sl
  304290:	e1a03a03 	lsl	r3, r3, #20
  304294:	e041aa23 	sub	sl, r1, r3, lsr #20
  304298:	e1a0100a 	mov	r1, sl
  30429c:	e1a00006 	mov	r0, r6
  3042a0:	eb0000b3 	bl	304574 <_sbrk_r>
  3042a4:	e3700001 	cmn	r0, #1
  3042a8:	03a0a000 	moveq	sl, #0
  3042ac:	03a03001 	moveq	r3, #1
  3042b0:	106b3000 	rsbne	r3, fp, r0
  3042b4:	e5991004 	ldr	r1, [r9, #4]
  3042b8:	e59d2004 	ldr	r2, [sp, #4]
  3042bc:	108a3003 	addne	r3, sl, r3
  3042c0:	13833001 	orrne	r3, r3, #1
  3042c4:	e08a1001 	add	r1, sl, r1
  3042c8:	e3520000 	cmp	r2, #0
  3042cc:	e587b008 	str	fp, [r7, #8]
  3042d0:	e5891004 	str	r1, [r9, #4]
  3042d4:	e58b3004 	str	r3, [fp, #4]
  3042d8:	e59fa144 	ldr	sl, [pc, #324]	; 304424 <_malloc_r+0x72c>
  3042dc:	0a00000f 	beq	304320 <_malloc_r+0x628>
  3042e0:	e358000f 	cmp	r8, #15
  3042e4:	93a03001 	movls	r3, #1
  3042e8:	958b3004 	strls	r3, [fp, #4]
  3042ec:	9affff58 	bls	304054 <_malloc_r+0x35c>
  3042f0:	e3a00005 	mov	r0, #5
  3042f4:	e248300c 	sub	r3, r8, #12
  3042f8:	e3c33007 	bic	r3, r3, #7
  3042fc:	e0842003 	add	r2, r4, r3
  304300:	e5820004 	str	r0, [r2, #4]
  304304:	e5820008 	str	r0, [r2, #8]
  304308:	e5942004 	ldr	r2, [r4, #4]
  30430c:	e2022001 	and	r2, r2, #1
  304310:	e353000f 	cmp	r3, #15
  304314:	e1833002 	orr	r3, r3, r2
  304318:	e5843004 	str	r3, [r4, #4]
  30431c:	8a00002b 	bhi	3043d0 <_malloc_r+0x6d8>
  304320:	e599302c 	ldr	r3, [r9, #44]	; 0x2c
  304324:	e1510003 	cmp	r1, r3
  304328:	e59f30f4 	ldr	r3, [pc, #244]	; 304424 <_malloc_r+0x72c>
  30432c:	e5974008 	ldr	r4, [r7, #8]
  304330:	8583102c 	strhi	r1, [r3, #44]	; 0x2c
  304334:	e5993030 	ldr	r3, [r9, #48]	; 0x30
  304338:	e59f20e4 	ldr	r2, [pc, #228]	; 304424 <_malloc_r+0x72c>
  30433c:	e1510003 	cmp	r1, r3
  304340:	e5943004 	ldr	r3, [r4, #4]
  304344:	85821030 	strhi	r1, [r2, #48]	; 0x30
  304348:	e3c33003 	bic	r3, r3, #3
  30434c:	eaffff38 	b	304034 <_malloc_r+0x33c>
  304350:	e3500f55 	cmp	r0, #340	; 0x154
  304354:	8a00000a 	bhi	304384 <_malloc_r+0x68c>
  304358:	e1a007a5 	lsr	r0, r5, #15
  30435c:	e2800077 	add	r0, r0, #119	; 0x77
  304360:	e1a01080 	lsl	r1, r0, #1
  304364:	eafffe92 	b	303db4 <_malloc_r+0xbc>
  304368:	e3a0e001 	mov	lr, #1
  30436c:	e5983004 	ldr	r3, [r8, #4]
  304370:	e1a01141 	asr	r1, r1, #2
  304374:	e183311e 	orr	r3, r3, lr, lsl r1
  304378:	e5883004 	str	r3, [r8, #4]
  30437c:	e1a01002 	mov	r1, r2
  304380:	eaffff68 	b	304128 <_malloc_r+0x430>
  304384:	e59f309c 	ldr	r3, [pc, #156]	; 304428 <_malloc_r+0x730>
  304388:	e1500003 	cmp	r0, r3
  30438c:	91a00925 	lsrls	r0, r5, #18
  304390:	9280007c 	addls	r0, r0, #124	; 0x7c
  304394:	91a01080 	lslls	r1, r0, #1
  304398:	83a010fc 	movhi	r1, #252	; 0xfc
  30439c:	83a0007e 	movhi	r0, #126	; 0x7e
  3043a0:	eafffe83 	b	303db4 <_malloc_r+0xbc>
  3043a4:	e5974008 	ldr	r4, [r7, #8]
  3043a8:	e5943004 	ldr	r3, [r4, #4]
  3043ac:	e3c33003 	bic	r3, r3, #3
  3043b0:	eaffff1f 	b	304034 <_malloc_r+0x33c>
  3043b4:	e1b02a03 	lsls	r2, r3, #20
  3043b8:	1affffa6 	bne	304258 <_malloc_r+0x560>
  3043bc:	e08a3008 	add	r3, sl, r8
  3043c0:	e5902008 	ldr	r2, [r0, #8]
  3043c4:	e3833001 	orr	r3, r3, #1
  3043c8:	e5823004 	str	r3, [r2, #4]
  3043cc:	eaffffd3 	b	304320 <_malloc_r+0x628>
  3043d0:	e2841008 	add	r1, r4, #8
  3043d4:	e1a00006 	mov	r0, r6
  3043d8:	eb001089 	bl	308604 <_free_r>
  3043dc:	e59a1004 	ldr	r1, [sl, #4]
  3043e0:	eaffffce 	b	304320 <_malloc_r+0x628>
  3043e4:	e3520f55 	cmp	r2, #340	; 0x154
  3043e8:	91a027a3 	lsrls	r2, r3, #15
  3043ec:	92821077 	addls	r1, r2, #119	; 0x77
  3043f0:	91a0e081 	lslls	lr, r1, #1
  3043f4:	9affff3d 	bls	3040f0 <_malloc_r+0x3f8>
  3043f8:	e59f1028 	ldr	r1, [pc, #40]	; 304428 <_malloc_r+0x730>
  3043fc:	e1520001 	cmp	r2, r1
  304400:	91a02923 	lsrls	r2, r3, #18
  304404:	9282107c 	addls	r1, r2, #124	; 0x7c
  304408:	91a0e081 	lslls	lr, r1, #1
  30440c:	83a0e0fc 	movhi	lr, #252	; 0xfc
  304410:	83a0107e 	movhi	r1, #126	; 0x7e
  304414:	eaffff35 	b	3040f0 <_malloc_r+0x3f8>
  304418:	e5973004 	ldr	r3, [r7, #4]
  30441c:	eaffff78 	b	304204 <_malloc_r+0x50c>
  304420:	0030f438 	eorseq	pc, r0, r8, lsr r4	; <UNPREDICTABLE>
  304424:	00310000 	eorseq	r0, r1, r0
  304428:	00000554 	andeq	r0, r0, r4, asr r5

0030442c <memcpy>:
  30442c:	e352000f 	cmp	r2, #15
  304430:	e92d4030 	push	{r4, r5, lr}
  304434:	e1a0c002 	mov	ip, r2
  304438:	9a000002 	bls	304448 <memcpy+0x1c>
  30443c:	e1803001 	orr	r3, r0, r1
  304440:	e3130003 	tst	r3, #3
  304444:	0a00000a 	beq	304474 <memcpy+0x48>
  304448:	e1a03000 	mov	r3, r0
  30444c:	e35c0000 	cmp	ip, #0
  304450:	0a000005 	beq	30446c <memcpy+0x40>
  304454:	e2433001 	sub	r3, r3, #1
  304458:	e081c00c 	add	ip, r1, ip
  30445c:	e4d12001 	ldrb	r2, [r1], #1
  304460:	e151000c 	cmp	r1, ip
  304464:	e5e32001 	strb	r2, [r3, #1]!
  304468:	1afffffb 	bne	30445c <memcpy+0x30>
  30446c:	e8bd4030 	pop	{r4, r5, lr}
  304470:	e12fff1e 	bx	lr
  304474:	e2423010 	sub	r3, r2, #16
  304478:	e1a03223 	lsr	r3, r3, #4
  30447c:	e2835002 	add	r5, r3, #2
  304480:	e0805205 	add	r5, r0, r5, lsl #4
  304484:	e280c010 	add	ip, r0, #16
  304488:	e281e010 	add	lr, r1, #16
  30448c:	e51e4010 	ldr	r4, [lr, #-16]
  304490:	e50c4010 	str	r4, [ip, #-16]
  304494:	e51e400c 	ldr	r4, [lr, #-12]
  304498:	e50c400c 	str	r4, [ip, #-12]
  30449c:	e51e4008 	ldr	r4, [lr, #-8]
  3044a0:	e50c4008 	str	r4, [ip, #-8]
  3044a4:	e51e4004 	ldr	r4, [lr, #-4]
  3044a8:	e28cc010 	add	ip, ip, #16
  3044ac:	e50c4014 	str	r4, [ip, #-20]
  3044b0:	e15c0005 	cmp	ip, r5
  3044b4:	e28ee010 	add	lr, lr, #16
  3044b8:	1afffff3 	bne	30448c <memcpy+0x60>
  3044bc:	e202200f 	and	r2, r2, #15
  3044c0:	e2833001 	add	r3, r3, #1
  3044c4:	e1a03203 	lsl	r3, r3, #4
  3044c8:	e3520003 	cmp	r2, #3
  3044cc:	e0811003 	add	r1, r1, r3
  3044d0:	e1a0c002 	mov	ip, r2
  3044d4:	e0803003 	add	r3, r0, r3
  3044d8:	9affffdb 	bls	30444c <memcpy+0x20>
  3044dc:	e2422004 	sub	r2, r2, #4
  3044e0:	e491e004 	ldr	lr, [r1], #4
  3044e4:	e3520003 	cmp	r2, #3
  3044e8:	e1a0c002 	mov	ip, r2
  3044ec:	e483e004 	str	lr, [r3], #4
  3044f0:	cafffff9 	bgt	3044dc <memcpy+0xb0>
  3044f4:	eaffffd4 	b	30444c <memcpy+0x20>

003044f8 <__malloc_lock>:
  3044f8:	e12fff1e 	bx	lr

003044fc <__malloc_unlock>:
  3044fc:	e12fff1e 	bx	lr

00304500 <_printf_r>:
  304500:	e92d000e 	push	{r1, r2, r3}
  304504:	e52de004 	push	{lr}		; (str lr, [sp, #-4]!)
  304508:	e24dd008 	sub	sp, sp, #8
  30450c:	e28dc010 	add	ip, sp, #16
  304510:	e1a0300c 	mov	r3, ip
  304514:	e5901008 	ldr	r1, [r0, #8]
  304518:	e59d200c 	ldr	r2, [sp, #12]
  30451c:	e58dc004 	str	ip, [sp, #4]
  304520:	eb000024 	bl	3045b8 <_vfprintf_r>
  304524:	e28dd008 	add	sp, sp, #8
  304528:	e49de004 	pop	{lr}		; (ldr lr, [sp], #4)
  30452c:	e28dd00c 	add	sp, sp, #12
  304530:	e12fff1e 	bx	lr

00304534 <printf>:
  304534:	e92d000f 	push	{r0, r1, r2, r3}
  304538:	e52de004 	push	{lr}		; (str lr, [sp, #-4]!)
  30453c:	e59f302c 	ldr	r3, [pc, #44]	; 304570 <printf+0x3c>
  304540:	e24dd00c 	sub	sp, sp, #12
  304544:	e5930000 	ldr	r0, [r3]
  304548:	e28dc014 	add	ip, sp, #20
  30454c:	e5901008 	ldr	r1, [r0, #8]
  304550:	e1a0300c 	mov	r3, ip
  304554:	e59d2010 	ldr	r2, [sp, #16]
  304558:	e58dc004 	str	ip, [sp, #4]
  30455c:	eb000015 	bl	3045b8 <_vfprintf_r>
  304560:	e28dd00c 	add	sp, sp, #12
  304564:	e49de004 	pop	{lr}		; (ldr lr, [sp], #4)
  304568:	e28dd010 	add	sp, sp, #16
  30456c:	e12fff1e 	bx	lr
  304570:	0030f008 	eorseq	pc, r0, r8

00304574 <_sbrk_r>:
  304574:	e92d4038 	push	{r3, r4, r5, lr}
  304578:	e3a03000 	mov	r3, #0
  30457c:	e59f4030 	ldr	r4, [pc, #48]	; 3045b4 <_sbrk_r+0x40>
  304580:	e1a05000 	mov	r5, r0
  304584:	e1a00001 	mov	r0, r1
  304588:	e5843000 	str	r3, [r4]
  30458c:	ebfff55a 	bl	301afc <_sbrk>
  304590:	e3700001 	cmn	r0, #1
  304594:	0a000001 	beq	3045a0 <_sbrk_r+0x2c>
  304598:	e8bd4038 	pop	{r3, r4, r5, lr}
  30459c:	e12fff1e 	bx	lr
  3045a0:	e5943000 	ldr	r3, [r4]
  3045a4:	e3530000 	cmp	r3, #0
  3045a8:	15853000 	strne	r3, [r5]
  3045ac:	e8bd4038 	pop	{r3, r4, r5, lr}
  3045b0:	e12fff1e 	bx	lr
  3045b4:	00313248 	eorseq	r3, r1, r8, asr #4

003045b8 <_vfprintf_r>:
  3045b8:	e92d4ff0 	push	{r4, r5, r6, r7, r8, r9, sl, fp, lr}
  3045bc:	e24ddc05 	sub	sp, sp, #1280	; 0x500
  3045c0:	e24dd00c 	sub	sp, sp, #12
  3045c4:	e1a0b001 	mov	fp, r1
  3045c8:	e58d2028 	str	r2, [sp, #40]	; 0x28
  3045cc:	e58d3038 	str	r3, [sp, #56]	; 0x38
  3045d0:	e1a0a000 	mov	sl, r0
  3045d4:	eb00112b 	bl	308a88 <_localeconv_r>
  3045d8:	e5903000 	ldr	r3, [r0]
  3045dc:	e1a00003 	mov	r0, r3
  3045e0:	e58d3058 	str	r3, [sp, #88]	; 0x58
  3045e4:	eb001694 	bl	30a03c <strlen>
  3045e8:	e35a0000 	cmp	sl, #0
  3045ec:	e58d005c 	str	r0, [sp, #92]	; 0x5c
  3045f0:	0a000002 	beq	304600 <_vfprintf_r+0x48>
  3045f4:	e59a3038 	ldr	r3, [sl, #56]	; 0x38
  3045f8:	e3530000 	cmp	r3, #0
  3045fc:	0a000104 	beq	304a14 <_vfprintf_r+0x45c>
  304600:	e1db70bc 	ldrh	r7, [fp, #12]
  304604:	e3170a02 	tst	r7, #8192	; 0x2000
  304608:	e1a03007 	mov	r3, r7
  30460c:	1a000005 	bne	304628 <_vfprintf_r+0x70>
  304610:	e3877a02 	orr	r7, r7, #8192	; 0x2000
  304614:	e1a03007 	mov	r3, r7
  304618:	e59b2064 	ldr	r2, [fp, #100]	; 0x64
  30461c:	e3c22a02 	bic	r2, r2, #8192	; 0x2000
  304620:	e1cb70bc 	strh	r7, [fp, #12]
  304624:	e58b2064 	str	r2, [fp, #100]	; 0x64
  304628:	e3130008 	tst	r3, #8
  30462c:	0a0000aa 	beq	3048dc <_vfprintf_r+0x324>
  304630:	e59b2010 	ldr	r2, [fp, #16]
  304634:	e3520000 	cmp	r2, #0
  304638:	0a0000a7 	beq	3048dc <_vfprintf_r+0x324>
  30463c:	e203301a 	and	r3, r3, #26
  304640:	e353000a 	cmp	r3, #10
  304644:	0a0000c7 	beq	304968 <_vfprintf_r+0x3b0>
  304648:	e3a03000 	mov	r3, #0
  30464c:	e1a0800b 	mov	r8, fp
  304650:	e58d3048 	str	r3, [sp, #72]	; 0x48
  304654:	e58d3054 	str	r3, [sp, #84]	; 0x54
  304658:	e58d3064 	str	r3, [sp, #100]	; 0x64
  30465c:	e58d3030 	str	r3, [sp, #48]	; 0x30
  304660:	e58d304c 	str	r3, [sp, #76]	; 0x4c
  304664:	e58d3050 	str	r3, [sp, #80]	; 0x50
  304668:	e58d309c 	str	r3, [sp, #156]	; 0x9c
  30466c:	e58d3098 	str	r3, [sp, #152]	; 0x98
  304670:	e28d20c8 	add	r2, sp, #200	; 0xc8
  304674:	e28d30c7 	add	r3, sp, #199	; 0xc7
  304678:	e28d9f42 	add	r9, sp, #264	; 0x108
  30467c:	e58d3068 	str	r3, [sp, #104]	; 0x68
  304680:	e0633002 	rsb	r3, r3, r2
  304684:	e58d9094 	str	r9, [sp, #148]	; 0x94
  304688:	e58d306c 	str	r3, [sp, #108]	; 0x6c
  30468c:	e58da01c 	str	sl, [sp, #28]
  304690:	e59d4028 	ldr	r4, [sp, #40]	; 0x28
  304694:	e5d43000 	ldrb	r3, [r4]
  304698:	e3530025 	cmp	r3, #37	; 0x25
  30469c:	13530000 	cmpne	r3, #0
  3046a0:	0a0000de 	beq	304a20 <_vfprintf_r+0x468>
  3046a4:	e5f43001 	ldrb	r3, [r4, #1]!
  3046a8:	e3530025 	cmp	r3, #37	; 0x25
  3046ac:	13530000 	cmpne	r3, #0
  3046b0:	1afffffb 	bne	3046a4 <_vfprintf_r+0xec>
  3046b4:	e59d1028 	ldr	r1, [sp, #40]	; 0x28
  3046b8:	e0545001 	subs	r5, r4, r1
  3046bc:	0a00000c 	beq	3046f4 <_vfprintf_r+0x13c>
  3046c0:	e59d3098 	ldr	r3, [sp, #152]	; 0x98
  3046c4:	e59d209c 	ldr	r2, [sp, #156]	; 0x9c
  3046c8:	e2833001 	add	r3, r3, #1
  3046cc:	e3530007 	cmp	r3, #7
  3046d0:	e0822005 	add	r2, r2, r5
  3046d4:	e8890022 	stm	r9, {r1, r5}
  3046d8:	e58d3098 	str	r3, [sp, #152]	; 0x98
  3046dc:	e58d209c 	str	r2, [sp, #156]	; 0x9c
  3046e0:	d2899008 	addle	r9, r9, #8
  3046e4:	ca000088 	bgt	30490c <_vfprintf_r+0x354>
  3046e8:	e59d3030 	ldr	r3, [sp, #48]	; 0x30
  3046ec:	e0833005 	add	r3, r3, r5
  3046f0:	e58d3030 	str	r3, [sp, #48]	; 0x30
  3046f4:	e5d43000 	ldrb	r3, [r4]
  3046f8:	e3530000 	cmp	r3, #0
  3046fc:	0a0005e5 	beq	305e98 <_vfprintf_r+0x18e0>
  304700:	e3a01000 	mov	r1, #0
  304704:	e2843001 	add	r3, r4, #1
  304708:	e1a02001 	mov	r2, r1
  30470c:	e1a04001 	mov	r4, r1
  304710:	e3e0a000 	mvn	sl, #0
  304714:	e5cd1077 	strb	r1, [sp, #119]	; 0x77
  304718:	e58d1034 	str	r1, [sp, #52]	; 0x34
  30471c:	e5d37000 	ldrb	r7, [r3]
  304720:	e2831001 	add	r1, r3, #1
  304724:	e2473020 	sub	r3, r7, #32
  304728:	e3530058 	cmp	r3, #88	; 0x58
  30472c:	979ff103 	ldrls	pc, [pc, r3, lsl #2]
  304730:	ea000302 	b	305340 <_vfprintf_r+0xd88>
  304734:	00304f54 	eorseq	r4, r0, r4, asr pc
  304738:	00305340 	eorseq	r5, r0, r0, asr #6
  30473c:	00305340 	eorseq	r5, r0, r0, asr #6
  304740:	00304f64 	eorseq	r4, r0, r4, ror #30
  304744:	00305340 	eorseq	r5, r0, r0, asr #6
  304748:	00305340 	eorseq	r5, r0, r0, asr #6
  30474c:	00305340 	eorseq	r5, r0, r0, asr #6
  304750:	00305340 	eorseq	r5, r0, r0, asr #6
  304754:	00305340 	eorseq	r5, r0, r0, asr #6
  304758:	00305340 	eorseq	r5, r0, r0, asr #6
  30475c:	003048a4 	eorseq	r4, r0, r4, lsr #17
  304760:	00304a28 	eorseq	r4, r0, r8, lsr #20
  304764:	00305340 	eorseq	r5, r0, r0, asr #6
  304768:	003048d0 	ldrsbteq	r4, [r0], -r0
  30476c:	00304f70 	eorseq	r4, r0, r0, ror pc
  304770:	00305340 	eorseq	r5, r0, r0, asr #6
  304774:	00304fb0 	ldrhteq	r4, [r0], -r0
  304778:	003051a0 	eorseq	r5, r0, r0, lsr #3
  30477c:	003051a0 	eorseq	r5, r0, r0, lsr #3
  304780:	003051a0 	eorseq	r5, r0, r0, lsr #3
  304784:	003051a0 	eorseq	r5, r0, r0, lsr #3
  304788:	003051a0 	eorseq	r5, r0, r0, lsr #3
  30478c:	003051a0 	eorseq	r5, r0, r0, lsr #3
  304790:	003051a0 	eorseq	r5, r0, r0, lsr #3
  304794:	003051a0 	eorseq	r5, r0, r0, lsr #3
  304798:	003051a0 	eorseq	r5, r0, r0, lsr #3
  30479c:	00305340 	eorseq	r5, r0, r0, asr #6
  3047a0:	00305340 	eorseq	r5, r0, r0, asr #6
  3047a4:	00305340 	eorseq	r5, r0, r0, asr #6
  3047a8:	00305340 	eorseq	r5, r0, r0, asr #6
  3047ac:	00305340 	eorseq	r5, r0, r0, asr #6
  3047b0:	00305340 	eorseq	r5, r0, r0, asr #6
  3047b4:	00305340 	eorseq	r5, r0, r0, asr #6
  3047b8:	00305340 	eorseq	r5, r0, r0, asr #6
  3047bc:	00305340 	eorseq	r5, r0, r0, asr #6
  3047c0:	00305340 	eorseq	r5, r0, r0, asr #6
  3047c4:	003052c4 	eorseq	r5, r0, r4, asr #5
  3047c8:	0030520c 	eorseq	r5, r0, ip, lsl #4
  3047cc:	00305340 	eorseq	r5, r0, r0, asr #6
  3047d0:	0030520c 	eorseq	r5, r0, ip, lsl #4
  3047d4:	00305340 	eorseq	r5, r0, r0, asr #6
  3047d8:	00305340 	eorseq	r5, r0, r0, asr #6
  3047dc:	00305340 	eorseq	r5, r0, r0, asr #6
  3047e0:	00305340 	eorseq	r5, r0, r0, asr #6
  3047e4:	003052b8 	ldrhteq	r5, [r0], -r8
  3047e8:	00305340 	eorseq	r5, r0, r0, asr #6
  3047ec:	00305340 	eorseq	r5, r0, r0, asr #6
  3047f0:	00304fbc 	ldrhteq	r4, [r0], -ip
  3047f4:	00305340 	eorseq	r5, r0, r0, asr #6
  3047f8:	00305340 	eorseq	r5, r0, r0, asr #6
  3047fc:	00305340 	eorseq	r5, r0, r0, asr #6
  304800:	00305340 	eorseq	r5, r0, r0, asr #6
  304804:	00305340 	eorseq	r5, r0, r0, asr #6
  304808:	00304fec 	eorseq	r4, r0, ip, ror #31
  30480c:	00305340 	eorseq	r5, r0, r0, asr #6
  304810:	00305340 	eorseq	r5, r0, r0, asr #6
  304814:	0030502c 	eorseq	r5, r0, ip, lsr #32
  304818:	00305340 	eorseq	r5, r0, r0, asr #6
  30481c:	00305340 	eorseq	r5, r0, r0, asr #6
  304820:	00305340 	eorseq	r5, r0, r0, asr #6
  304824:	00305340 	eorseq	r5, r0, r0, asr #6
  304828:	00305340 	eorseq	r5, r0, r0, asr #6
  30482c:	00305340 	eorseq	r5, r0, r0, asr #6
  304830:	00305340 	eorseq	r5, r0, r0, asr #6
  304834:	00305340 	eorseq	r5, r0, r0, asr #6
  304838:	00305340 	eorseq	r5, r0, r0, asr #6
  30483c:	00305340 	eorseq	r5, r0, r0, asr #6
  304840:	00305090 	mlaseq	r0, r0, r0, r5
  304844:	003050d8 	ldrsbteq	r5, [r0], -r8
  304848:	0030520c 	eorseq	r5, r0, ip, lsl #4
  30484c:	0030520c 	eorseq	r5, r0, ip, lsl #4
  304850:	0030520c 	eorseq	r5, r0, ip, lsl #4
  304854:	00305120 	eorseq	r5, r0, r0, lsr #2
  304858:	003050d8 	ldrsbteq	r5, [r0], -r8
  30485c:	00305340 	eorseq	r5, r0, r0, asr #6
  304860:	00305340 	eorseq	r5, r0, r0, asr #6
  304864:	00304898 	mlaseq	r0, r8, r8, r4
  304868:	00305340 	eorseq	r5, r0, r0, asr #6
  30486c:	0030516c 	eorseq	r5, r0, ip, ror #2
  304870:	003051c8 	eorseq	r5, r0, r8, asr #3
  304874:	00305304 	eorseq	r5, r0, r4, lsl #6
  304878:	00304898 	mlaseq	r0, r8, r8, r4
  30487c:	00305340 	eorseq	r5, r0, r0, asr #6
  304880:	00304a34 	eorseq	r4, r0, r4, lsr sl
  304884:	00305340 	eorseq	r5, r0, r0, asr #6
  304888:	00304ea8 	eorseq	r4, r0, r8, lsr #29
  30488c:	00305340 	eorseq	r5, r0, r0, asr #6
  304890:	00305340 	eorseq	r5, r0, r0, asr #6
  304894:	0030512c 	eorseq	r5, r0, ip, lsr #2
  304898:	e3844010 	orr	r4, r4, #16
  30489c:	e1a03001 	mov	r3, r1
  3048a0:	eaffff9d 	b	30471c <_vfprintf_r+0x164>
  3048a4:	e59d3038 	ldr	r3, [sp, #56]	; 0x38
  3048a8:	e5930000 	ldr	r0, [r3]
  3048ac:	e58d0034 	str	r0, [sp, #52]	; 0x34
  3048b0:	e3500000 	cmp	r0, #0
  3048b4:	e2830004 	add	r0, r3, #4
  3048b8:	e58d0038 	str	r0, [sp, #56]	; 0x38
  3048bc:	e1a03001 	mov	r3, r1
  3048c0:	aaffff95 	bge	30471c <_vfprintf_r+0x164>
  3048c4:	e59d3034 	ldr	r3, [sp, #52]	; 0x34
  3048c8:	e2633000 	rsb	r3, r3, #0
  3048cc:	e58d3034 	str	r3, [sp, #52]	; 0x34
  3048d0:	e3844004 	orr	r4, r4, #4
  3048d4:	e1a03001 	mov	r3, r1
  3048d8:	eaffff8f 	b	30471c <_vfprintf_r+0x164>
  3048dc:	e1a0000a 	mov	r0, sl
  3048e0:	e1a0100b 	mov	r1, fp
  3048e4:	eb0006c5 	bl	306400 <__swsetup_r>
  3048e8:	e3500000 	cmp	r0, #0
  3048ec:	01db70bc 	ldrheq	r7, [fp, #12]
  3048f0:	01a03007 	moveq	r3, r7
  3048f4:	0affff50 	beq	30463c <_vfprintf_r+0x84>
  3048f8:	e3e00000 	mvn	r0, #0
  3048fc:	e28ddc05 	add	sp, sp, #1280	; 0x500
  304900:	e28dd00c 	add	sp, sp, #12
  304904:	e8bd4ff0 	pop	{r4, r5, r6, r7, r8, r9, sl, fp, lr}
  304908:	e12fff1e 	bx	lr
  30490c:	e28d2094 	add	r2, sp, #148	; 0x94
  304910:	e59d001c 	ldr	r0, [sp, #28]
  304914:	e1a01008 	mov	r1, r8
  304918:	eb00160a 	bl	30a148 <__sprint_r>
  30491c:	e3500000 	cmp	r0, #0
  304920:	1a000007 	bne	304944 <_vfprintf_r+0x38c>
  304924:	e28d9f42 	add	r9, sp, #264	; 0x108
  304928:	eaffff6e 	b	3046e8 <_vfprintf_r+0x130>
  30492c:	e28d2094 	add	r2, sp, #148	; 0x94
  304930:	e59d001c 	ldr	r0, [sp, #28]
  304934:	e1a01008 	mov	r1, r8
  304938:	eb001602 	bl	30a148 <__sprint_r>
  30493c:	e3500000 	cmp	r0, #0
  304940:	0a000154 	beq	304e98 <_vfprintf_r+0x8e0>
  304944:	e1a0b008 	mov	fp, r8
  304948:	e1db30bc 	ldrh	r3, [fp, #12]
  30494c:	e3130040 	tst	r3, #64	; 0x40
  304950:	1affffe8 	bne	3048f8 <_vfprintf_r+0x340>
  304954:	e59d0030 	ldr	r0, [sp, #48]	; 0x30
  304958:	e28ddc05 	add	sp, sp, #1280	; 0x500
  30495c:	e28dd00c 	add	sp, sp, #12
  304960:	e8bd4ff0 	pop	{r4, r5, r6, r7, r8, r9, sl, fp, lr}
  304964:	e12fff1e 	bx	lr
  304968:	e1db00be 	ldrh	r0, [fp, #14]
  30496c:	e3100902 	tst	r0, #32768	; 0x8000
  304970:	1affff34 	bne	304648 <_vfprintf_r+0x90>
  304974:	e3a0cb01 	mov	ip, #1024	; 0x400
  304978:	e3a06000 	mov	r6, #0
  30497c:	e28d40a0 	add	r4, sp, #160	; 0xa0
  304980:	e59b5064 	ldr	r5, [fp, #100]	; 0x64
  304984:	e59be01c 	ldr	lr, [fp, #28]
  304988:	e59b8024 	ldr	r8, [fp, #36]	; 0x24
  30498c:	e3c77002 	bic	r7, r7, #2
  304990:	e1c470bc 	strh	r7, [r4, #12]
  304994:	e1c400be 	strh	r0, [r4, #14]
  304998:	e28d7f42 	add	r7, sp, #264	; 0x108
  30499c:	e59d2028 	ldr	r2, [sp, #40]	; 0x28
  3049a0:	e59d3038 	ldr	r3, [sp, #56]	; 0x38
  3049a4:	e1a01004 	mov	r1, r4
  3049a8:	e1a0000a 	mov	r0, sl
  3049ac:	e58d5104 	str	r5, [sp, #260]	; 0x104
  3049b0:	e58dc0a8 	str	ip, [sp, #168]	; 0xa8
  3049b4:	e58dc0b4 	str	ip, [sp, #180]	; 0xb4
  3049b8:	e58d60b8 	str	r6, [sp, #184]	; 0xb8
  3049bc:	e58de0bc 	str	lr, [sp, #188]	; 0xbc
  3049c0:	e58d80c4 	str	r8, [sp, #196]	; 0xc4
  3049c4:	e58d70a0 	str	r7, [sp, #160]	; 0xa0
  3049c8:	e58d70b0 	str	r7, [sp, #176]	; 0xb0
  3049cc:	ebfffef9 	bl	3045b8 <_vfprintf_r>
  3049d0:	e2505000 	subs	r5, r0, #0
  3049d4:	ba000004 	blt	3049ec <_vfprintf_r+0x434>
  3049d8:	e1a0000a 	mov	r0, sl
  3049dc:	e1a01004 	mov	r1, r4
  3049e0:	eb000d4d 	bl	307f1c <_fflush_r>
  3049e4:	e1500006 	cmp	r0, r6
  3049e8:	13e05000 	mvnne	r5, #0
  3049ec:	e1a00005 	mov	r0, r5
  3049f0:	e1dd3abc 	ldrh	r3, [sp, #172]	; 0xac
  3049f4:	e3130040 	tst	r3, #64	; 0x40
  3049f8:	11db30bc 	ldrhne	r3, [fp, #12]
  3049fc:	13833040 	orrne	r3, r3, #64	; 0x40
  304a00:	11cb30bc 	strhne	r3, [fp, #12]
  304a04:	e28ddc05 	add	sp, sp, #1280	; 0x500
  304a08:	e28dd00c 	add	sp, sp, #12
  304a0c:	e8bd4ff0 	pop	{r4, r5, r6, r7, r8, r9, sl, fp, lr}
  304a10:	e12fff1e 	bx	lr
  304a14:	e1a0000a 	mov	r0, sl
  304a18:	eb000e9f 	bl	30849c <__sinit>
  304a1c:	eafffef7 	b	304600 <_vfprintf_r+0x48>
  304a20:	e59d4028 	ldr	r4, [sp, #40]	; 0x28
  304a24:	eaffff32 	b	3046f4 <_vfprintf_r+0x13c>
  304a28:	e1a03001 	mov	r3, r1
  304a2c:	e3a0202b 	mov	r2, #43	; 0x2b
  304a30:	eaffff39 	b	30471c <_vfprintf_r+0x164>
  304a34:	e3a06000 	mov	r6, #0
  304a38:	e59d3038 	ldr	r3, [sp, #56]	; 0x38
  304a3c:	e5932000 	ldr	r2, [r3]
  304a40:	e1520006 	cmp	r2, r6
  304a44:	e58d1028 	str	r1, [sp, #40]	; 0x28
  304a48:	e58d2044 	str	r2, [sp, #68]	; 0x44
  304a4c:	e58da02c 	str	sl, [sp, #44]	; 0x2c
  304a50:	e5cd6077 	strb	r6, [sp, #119]	; 0x77
  304a54:	e2835004 	add	r5, r3, #4
  304a58:	0a00058d 	beq	306094 <_vfprintf_r+0x1adc>
  304a5c:	e59d302c 	ldr	r3, [sp, #44]	; 0x2c
  304a60:	e3530000 	cmp	r3, #0
  304a64:	e59d0044 	ldr	r0, [sp, #68]	; 0x44
  304a68:	ba00057f 	blt	30606c <_vfprintf_r+0x1ab4>
  304a6c:	e1a01006 	mov	r1, r6
  304a70:	e1a02003 	mov	r2, r3
  304a74:	eb001069 	bl	308c20 <memchr>
  304a78:	e3500000 	cmp	r0, #0
  304a7c:	0a0005f2 	beq	30624c <_vfprintf_r+0x1c94>
  304a80:	e59d3044 	ldr	r3, [sp, #68]	; 0x44
  304a84:	e59d202c 	ldr	r2, [sp, #44]	; 0x2c
  304a88:	e0633000 	rsb	r3, r3, r0
  304a8c:	e1530002 	cmp	r3, r2
  304a90:	a1a03002 	movge	r3, r2
  304a94:	e58d302c 	str	r3, [sp, #44]	; 0x2c
  304a98:	e1c33fc3 	bic	r3, r3, r3, asr #31
  304a9c:	e58d5038 	str	r5, [sp, #56]	; 0x38
  304aa0:	e58d4020 	str	r4, [sp, #32]
  304aa4:	e58d6040 	str	r6, [sp, #64]	; 0x40
  304aa8:	e58d3024 	str	r3, [sp, #36]	; 0x24
  304aac:	e5dd0077 	ldrb	r0, [sp, #119]	; 0x77
  304ab0:	e3500000 	cmp	r0, #0
  304ab4:	0a000002 	beq	304ac4 <_vfprintf_r+0x50c>
  304ab8:	e59d3024 	ldr	r3, [sp, #36]	; 0x24
  304abc:	e2833001 	add	r3, r3, #1
  304ac0:	e58d3024 	str	r3, [sp, #36]	; 0x24
  304ac4:	e59d3020 	ldr	r3, [sp, #32]
  304ac8:	e213b002 	ands	fp, r3, #2
  304acc:	159d3024 	ldrne	r3, [sp, #36]	; 0x24
  304ad0:	12833002 	addne	r3, r3, #2
  304ad4:	158d3024 	strne	r3, [sp, #36]	; 0x24
  304ad8:	e59d3020 	ldr	r3, [sp, #32]
  304adc:	e2133084 	ands	r3, r3, #132	; 0x84
  304ae0:	e58d303c 	str	r3, [sp, #60]	; 0x3c
  304ae4:	1a00003e 	bne	304be4 <_vfprintf_r+0x62c>
  304ae8:	e59d3034 	ldr	r3, [sp, #52]	; 0x34
  304aec:	e59d2024 	ldr	r2, [sp, #36]	; 0x24
  304af0:	e0626003 	rsb	r6, r2, r3
  304af4:	e3560000 	cmp	r6, #0
  304af8:	da000039 	ble	304be4 <_vfprintf_r+0x62c>
  304afc:	e3560010 	cmp	r6, #16
  304b00:	da00055c 	ble	306078 <_vfprintf_r+0x1ac0>
  304b04:	e28d4c05 	add	r4, sp, #1280	; 0x500
  304b08:	e2844008 	add	r4, r4, #8
  304b0c:	e5342470 	ldr	r2, [r4, #-1136]!	; 0x470
  304b10:	e59fafe8 	ldr	sl, [pc, #4072]	; 305b00 <_vfprintf_r+0x1548>
  304b14:	e2444004 	sub	r4, r4, #4
  304b18:	e58d7060 	str	r7, [sp, #96]	; 0x60
  304b1c:	e3a05010 	mov	r5, #16
  304b20:	e1a0700a 	mov	r7, sl
  304b24:	e59d109c 	ldr	r1, [sp, #156]	; 0x9c
  304b28:	e1a0a006 	mov	sl, r6
  304b2c:	e1a06004 	mov	r6, r4
  304b30:	e59d401c 	ldr	r4, [sp, #28]
  304b34:	ea000002 	b	304b44 <_vfprintf_r+0x58c>
  304b38:	e24aa010 	sub	sl, sl, #16
  304b3c:	e35a0010 	cmp	sl, #16
  304b40:	da000014 	ble	304b98 <_vfprintf_r+0x5e0>
  304b44:	e2822001 	add	r2, r2, #1
  304b48:	e3520007 	cmp	r2, #7
  304b4c:	e2811010 	add	r1, r1, #16
  304b50:	e5897000 	str	r7, [r9]
  304b54:	e5895004 	str	r5, [r9, #4]
  304b58:	e58d2098 	str	r2, [sp, #152]	; 0x98
  304b5c:	e58d109c 	str	r1, [sp, #156]	; 0x9c
  304b60:	d2899008 	addle	r9, r9, #8
  304b64:	dafffff3 	ble	304b38 <_vfprintf_r+0x580>
  304b68:	e1a00004 	mov	r0, r4
  304b6c:	e1a01008 	mov	r1, r8
  304b70:	e1a02006 	mov	r2, r6
  304b74:	eb001573 	bl	30a148 <__sprint_r>
  304b78:	e3500000 	cmp	r0, #0
  304b7c:	1affff70 	bne	304944 <_vfprintf_r+0x38c>
  304b80:	e24aa010 	sub	sl, sl, #16
  304b84:	e35a0010 	cmp	sl, #16
  304b88:	e28d9f42 	add	r9, sp, #264	; 0x108
  304b8c:	e59d109c 	ldr	r1, [sp, #156]	; 0x9c
  304b90:	e59d2098 	ldr	r2, [sp, #152]	; 0x98
  304b94:	caffffea 	bgt	304b44 <_vfprintf_r+0x58c>
  304b98:	e1a0600a 	mov	r6, sl
  304b9c:	e1a0a007 	mov	sl, r7
  304ba0:	e59d7060 	ldr	r7, [sp, #96]	; 0x60
  304ba4:	e2824001 	add	r4, r2, #1
  304ba8:	e3540007 	cmp	r4, #7
  304bac:	e0865001 	add	r5, r6, r1
  304bb0:	e589a000 	str	sl, [r9]
  304bb4:	e5896004 	str	r6, [r9, #4]
  304bb8:	e58d4098 	str	r4, [sp, #152]	; 0x98
  304bbc:	e58d509c 	str	r5, [sp, #156]	; 0x9c
  304bc0:	d2899008 	addle	r9, r9, #8
  304bc4:	da000008 	ble	304bec <_vfprintf_r+0x634>
  304bc8:	e28d2094 	add	r2, sp, #148	; 0x94
  304bcc:	e59d001c 	ldr	r0, [sp, #28]
  304bd0:	e1a01008 	mov	r1, r8
  304bd4:	eb00155b 	bl	30a148 <__sprint_r>
  304bd8:	e3500000 	cmp	r0, #0
  304bdc:	1affff58 	bne	304944 <_vfprintf_r+0x38c>
  304be0:	e28d9f42 	add	r9, sp, #264	; 0x108
  304be4:	e28d4098 	add	r4, sp, #152	; 0x98
  304be8:	e8940030 	ldm	r4, {r4, r5}
  304bec:	e5dd3077 	ldrb	r3, [sp, #119]	; 0x77
  304bf0:	e3530000 	cmp	r3, #0
  304bf4:	0a00000a 	beq	304c24 <_vfprintf_r+0x66c>
  304bf8:	e3a02001 	mov	r2, #1
  304bfc:	e0844002 	add	r4, r4, r2
  304c00:	e3540007 	cmp	r4, #7
  304c04:	e0855002 	add	r5, r5, r2
  304c08:	e28d3077 	add	r3, sp, #119	; 0x77
  304c0c:	e5892004 	str	r2, [r9, #4]
  304c10:	e5893000 	str	r3, [r9]
  304c14:	e58d4098 	str	r4, [sp, #152]	; 0x98
  304c18:	e58d509c 	str	r5, [sp, #156]	; 0x9c
  304c1c:	d2899008 	addle	r9, r9, #8
  304c20:	ca0002d9 	bgt	30578c <_vfprintf_r+0x11d4>
  304c24:	e35b0000 	cmp	fp, #0
  304c28:	0a00000a 	beq	304c58 <_vfprintf_r+0x6a0>
  304c2c:	e3a02002 	mov	r2, #2
  304c30:	e2844001 	add	r4, r4, #1
  304c34:	e3540007 	cmp	r4, #7
  304c38:	e0855002 	add	r5, r5, r2
  304c3c:	e28d3078 	add	r3, sp, #120	; 0x78
  304c40:	e5892004 	str	r2, [r9, #4]
  304c44:	e5893000 	str	r3, [r9]
  304c48:	e58d4098 	str	r4, [sp, #152]	; 0x98
  304c4c:	e58d509c 	str	r5, [sp, #156]	; 0x9c
  304c50:	d2899008 	addle	r9, r9, #8
  304c54:	ca0002d6 	bgt	3057b4 <_vfprintf_r+0x11fc>
  304c58:	e59d303c 	ldr	r3, [sp, #60]	; 0x3c
  304c5c:	e3530080 	cmp	r3, #128	; 0x80
  304c60:	0a000221 	beq	3054ec <_vfprintf_r+0xf34>
  304c64:	e59d3040 	ldr	r3, [sp, #64]	; 0x40
  304c68:	e59d202c 	ldr	r2, [sp, #44]	; 0x2c
  304c6c:	e0626003 	rsb	r6, r2, r3
  304c70:	e3560000 	cmp	r6, #0
  304c74:	da000038 	ble	304d5c <_vfprintf_r+0x7a4>
  304c78:	e3560010 	cmp	r6, #16
  304c7c:	d59fbe98 	ldrle	fp, [pc, #3736]	; 305b1c <_vfprintf_r+0x1564>
  304c80:	da000023 	ble	304d14 <_vfprintf_r+0x75c>
  304c84:	e59fbe90 	ldr	fp, [pc, #3728]	; 305b1c <_vfprintf_r+0x1564>
  304c88:	e1a0200b 	mov	r2, fp
  304c8c:	e28d3094 	add	r3, sp, #148	; 0x94
  304c90:	e58d703c 	str	r7, [sp, #60]	; 0x3c
  304c94:	e1a0b006 	mov	fp, r6
  304c98:	e3a0a010 	mov	sl, #16
  304c9c:	e1a07003 	mov	r7, r3
  304ca0:	e1a06002 	mov	r6, r2
  304ca4:	ea000002 	b	304cb4 <_vfprintf_r+0x6fc>
  304ca8:	e24bb010 	sub	fp, fp, #16
  304cac:	e35b0010 	cmp	fp, #16
  304cb0:	da000013 	ble	304d04 <_vfprintf_r+0x74c>
  304cb4:	e2844001 	add	r4, r4, #1
  304cb8:	e3540007 	cmp	r4, #7
  304cbc:	e2855010 	add	r5, r5, #16
  304cc0:	e8890440 	stm	r9, {r6, sl}
  304cc4:	e58d4098 	str	r4, [sp, #152]	; 0x98
  304cc8:	e58d509c 	str	r5, [sp, #156]	; 0x9c
  304ccc:	d2899008 	addle	r9, r9, #8
  304cd0:	dafffff4 	ble	304ca8 <_vfprintf_r+0x6f0>
  304cd4:	e59d001c 	ldr	r0, [sp, #28]
  304cd8:	e1a01008 	mov	r1, r8
  304cdc:	e1a02007 	mov	r2, r7
  304ce0:	eb001518 	bl	30a148 <__sprint_r>
  304ce4:	e3500000 	cmp	r0, #0
  304ce8:	1affff15 	bne	304944 <_vfprintf_r+0x38c>
  304cec:	e24bb010 	sub	fp, fp, #16
  304cf0:	e28d4098 	add	r4, sp, #152	; 0x98
  304cf4:	e35b0010 	cmp	fp, #16
  304cf8:	e28d9f42 	add	r9, sp, #264	; 0x108
  304cfc:	e8940030 	ldm	r4, {r4, r5}
  304d00:	caffffeb 	bgt	304cb4 <_vfprintf_r+0x6fc>
  304d04:	e1a03006 	mov	r3, r6
  304d08:	e1a0600b 	mov	r6, fp
  304d0c:	e1a0b003 	mov	fp, r3
  304d10:	e59d703c 	ldr	r7, [sp, #60]	; 0x3c
  304d14:	e2844001 	add	r4, r4, #1
  304d18:	e3540007 	cmp	r4, #7
  304d1c:	e0855006 	add	r5, r5, r6
  304d20:	e589b000 	str	fp, [r9]
  304d24:	e5896004 	str	r6, [r9, #4]
  304d28:	e58d4098 	str	r4, [sp, #152]	; 0x98
  304d2c:	e58d509c 	str	r5, [sp, #156]	; 0x9c
  304d30:	d2899008 	addle	r9, r9, #8
  304d34:	da000008 	ble	304d5c <_vfprintf_r+0x7a4>
  304d38:	e28d2094 	add	r2, sp, #148	; 0x94
  304d3c:	e59d001c 	ldr	r0, [sp, #28]
  304d40:	e1a01008 	mov	r1, r8
  304d44:	eb0014ff 	bl	30a148 <__sprint_r>
  304d48:	e3500000 	cmp	r0, #0
  304d4c:	1afffefc 	bne	304944 <_vfprintf_r+0x38c>
  304d50:	e28d4098 	add	r4, sp, #152	; 0x98
  304d54:	e8940030 	ldm	r4, {r4, r5}
  304d58:	e28d9f42 	add	r9, sp, #264	; 0x108
  304d5c:	e59d3020 	ldr	r3, [sp, #32]
  304d60:	e3130c01 	tst	r3, #256	; 0x100
  304d64:	1a00018a 	bne	305394 <_vfprintf_r+0xddc>
  304d68:	e2844001 	add	r4, r4, #1
  304d6c:	e59d302c 	ldr	r3, [sp, #44]	; 0x2c
  304d70:	e58d4098 	str	r4, [sp, #152]	; 0x98
  304d74:	e3540007 	cmp	r4, #7
  304d78:	e0835005 	add	r5, r3, r5
  304d7c:	e59d2044 	ldr	r2, [sp, #68]	; 0x44
  304d80:	e58d509c 	str	r5, [sp, #156]	; 0x9c
  304d84:	e889000c 	stm	r9, {r2, r3}
  304d88:	ca000276 	bgt	305768 <_vfprintf_r+0x11b0>
  304d8c:	e2899008 	add	r9, r9, #8
  304d90:	e59d3020 	ldr	r3, [sp, #32]
  304d94:	e3130004 	tst	r3, #4
  304d98:	0a000035 	beq	304e74 <_vfprintf_r+0x8bc>
  304d9c:	e59d3034 	ldr	r3, [sp, #52]	; 0x34
  304da0:	e59d2024 	ldr	r2, [sp, #36]	; 0x24
  304da4:	e0624003 	rsb	r4, r2, r3
  304da8:	e3540000 	cmp	r4, #0
  304dac:	da000030 	ble	304e74 <_vfprintf_r+0x8bc>
  304db0:	e3540010 	cmp	r4, #16
  304db4:	da0004b3 	ble	306088 <_vfprintf_r+0x1ad0>
  304db8:	e28d6c05 	add	r6, sp, #1280	; 0x500
  304dbc:	e2866008 	add	r6, r6, #8
  304dc0:	e5362470 	ldr	r2, [r6, #-1136]!	; 0x470
  304dc4:	e3a07010 	mov	r7, #16
  304dc8:	e59fad30 	ldr	sl, [pc, #3376]	; 305b00 <_vfprintf_r+0x1548>
  304dcc:	e2466004 	sub	r6, r6, #4
  304dd0:	e59db01c 	ldr	fp, [sp, #28]
  304dd4:	ea000002 	b	304de4 <_vfprintf_r+0x82c>
  304dd8:	e2444010 	sub	r4, r4, #16
  304ddc:	e3540010 	cmp	r4, #16
  304de0:	da000014 	ble	304e38 <_vfprintf_r+0x880>
  304de4:	e2822001 	add	r2, r2, #1
  304de8:	e3520007 	cmp	r2, #7
  304dec:	e2855010 	add	r5, r5, #16
  304df0:	e589a000 	str	sl, [r9]
  304df4:	e5897004 	str	r7, [r9, #4]
  304df8:	e58d2098 	str	r2, [sp, #152]	; 0x98
  304dfc:	e58d509c 	str	r5, [sp, #156]	; 0x9c
  304e00:	d2899008 	addle	r9, r9, #8
  304e04:	dafffff3 	ble	304dd8 <_vfprintf_r+0x820>
  304e08:	e1a0000b 	mov	r0, fp
  304e0c:	e1a01008 	mov	r1, r8
  304e10:	e1a02006 	mov	r2, r6
  304e14:	eb0014cb 	bl	30a148 <__sprint_r>
  304e18:	e3500000 	cmp	r0, #0
  304e1c:	1afffec8 	bne	304944 <_vfprintf_r+0x38c>
  304e20:	e2444010 	sub	r4, r4, #16
  304e24:	e28d2098 	add	r2, sp, #152	; 0x98
  304e28:	e3540010 	cmp	r4, #16
  304e2c:	e28d9f42 	add	r9, sp, #264	; 0x108
  304e30:	e8920024 	ldm	r2, {r2, r5}
  304e34:	caffffea 	bgt	304de4 <_vfprintf_r+0x82c>
  304e38:	e2822001 	add	r2, r2, #1
  304e3c:	e0855004 	add	r5, r5, r4
  304e40:	e3520007 	cmp	r2, #7
  304e44:	e58d2098 	str	r2, [sp, #152]	; 0x98
  304e48:	e58d509c 	str	r5, [sp, #156]	; 0x9c
  304e4c:	e589a000 	str	sl, [r9]
  304e50:	e5894004 	str	r4, [r9, #4]
  304e54:	da000006 	ble	304e74 <_vfprintf_r+0x8bc>
  304e58:	e28d2094 	add	r2, sp, #148	; 0x94
  304e5c:	e59d001c 	ldr	r0, [sp, #28]
  304e60:	e1a01008 	mov	r1, r8
  304e64:	eb0014b7 	bl	30a148 <__sprint_r>
  304e68:	e3500000 	cmp	r0, #0
  304e6c:	1afffeb4 	bne	304944 <_vfprintf_r+0x38c>
  304e70:	e59d509c 	ldr	r5, [sp, #156]	; 0x9c
  304e74:	e59d3030 	ldr	r3, [sp, #48]	; 0x30
  304e78:	e59d2024 	ldr	r2, [sp, #36]	; 0x24
  304e7c:	e59d1034 	ldr	r1, [sp, #52]	; 0x34
  304e80:	e1520001 	cmp	r2, r1
  304e84:	a0833002 	addge	r3, r3, r2
  304e88:	b0833001 	addlt	r3, r3, r1
  304e8c:	e3550000 	cmp	r5, #0
  304e90:	e58d3030 	str	r3, [sp, #48]	; 0x30
  304e94:	1afffea4 	bne	30492c <_vfprintf_r+0x374>
  304e98:	e3a03000 	mov	r3, #0
  304e9c:	e28d9f42 	add	r9, sp, #264	; 0x108
  304ea0:	e58d3098 	str	r3, [sp, #152]	; 0x98
  304ea4:	eafffdf9 	b	304690 <_vfprintf_r+0xd8>
  304ea8:	e58d4020 	str	r4, [sp, #32]
  304eac:	e59d3020 	ldr	r3, [sp, #32]
  304eb0:	e3130010 	tst	r3, #16
  304eb4:	e58d1028 	str	r1, [sp, #40]	; 0x28
  304eb8:	0a000051 	beq	305004 <_vfprintf_r+0xa4c>
  304ebc:	e3a02001 	mov	r2, #1
  304ec0:	e59d1038 	ldr	r1, [sp, #56]	; 0x38
  304ec4:	e5913000 	ldr	r3, [r1]
  304ec8:	e2811004 	add	r1, r1, #4
  304ecc:	e58d1038 	str	r1, [sp, #56]	; 0x38
  304ed0:	e3a01000 	mov	r1, #0
  304ed4:	e1a00001 	mov	r0, r1
  304ed8:	e58da040 	str	sl, [sp, #64]	; 0x40
  304edc:	e5cd1077 	strb	r1, [sp, #119]	; 0x77
  304ee0:	e35a0000 	cmp	sl, #0
  304ee4:	a59d1020 	ldrge	r1, [sp, #32]
  304ee8:	a3c11080 	bicge	r1, r1, #128	; 0x80
  304eec:	a58d1020 	strge	r1, [sp, #32]
  304ef0:	e3530000 	cmp	r3, #0
  304ef4:	035a0000 	cmpeq	sl, #0
  304ef8:	13a01001 	movne	r1, #1
  304efc:	03a01000 	moveq	r1, #0
  304f00:	0a00016d 	beq	3054bc <_vfprintf_r+0xf04>
  304f04:	e3520001 	cmp	r2, #1
  304f08:	0a00027e 	beq	305908 <_vfprintf_r+0x1350>
  304f0c:	e3520002 	cmp	r2, #2
  304f10:	1a000264 	bne	3058a8 <_vfprintf_r+0x12f0>
  304f14:	e59dc054 	ldr	ip, [sp, #84]	; 0x54
  304f18:	e28d20c8 	add	r2, sp, #200	; 0xc8
  304f1c:	e203100f 	and	r1, r3, #15
  304f20:	e7dc1001 	ldrb	r1, [ip, r1]
  304f24:	e1b03223 	lsrs	r3, r3, #4
  304f28:	e5621001 	strb	r1, [r2, #-1]!
  304f2c:	1afffffa 	bne	304f1c <_vfprintf_r+0x964>
  304f30:	e28d30c8 	add	r3, sp, #200	; 0xc8
  304f34:	e0623003 	rsb	r3, r2, r3
  304f38:	e58d2044 	str	r2, [sp, #68]	; 0x44
  304f3c:	e58d302c 	str	r3, [sp, #44]	; 0x2c
  304f40:	e59d302c 	ldr	r3, [sp, #44]	; 0x2c
  304f44:	e153000a 	cmp	r3, sl
  304f48:	b1a0300a 	movlt	r3, sl
  304f4c:	e58d3024 	str	r3, [sp, #36]	; 0x24
  304f50:	eafffed6 	b	304ab0 <_vfprintf_r+0x4f8>
  304f54:	e3520000 	cmp	r2, #0
  304f58:	e1a03001 	mov	r3, r1
  304f5c:	03a02020 	moveq	r2, #32
  304f60:	eafffded 	b	30471c <_vfprintf_r+0x164>
  304f64:	e3844001 	orr	r4, r4, #1
  304f68:	e1a03001 	mov	r3, r1
  304f6c:	eafffdea 	b	30471c <_vfprintf_r+0x164>
  304f70:	e5d17000 	ldrb	r7, [r1]
  304f74:	e357002a 	cmp	r7, #42	; 0x2a
  304f78:	e2811001 	add	r1, r1, #1
  304f7c:	0a0004fd 	beq	306378 <_vfprintf_r+0x1dc0>
  304f80:	e2470030 	sub	r0, r7, #48	; 0x30
  304f84:	e3500009 	cmp	r0, #9
  304f88:	e3a0a000 	mov	sl, #0
  304f8c:	8afffde4 	bhi	304724 <_vfprintf_r+0x16c>
  304f90:	e4d17001 	ldrb	r7, [r1], #1
  304f94:	e08aa10a 	add	sl, sl, sl, lsl #2
  304f98:	e080a08a 	add	sl, r0, sl, lsl #1
  304f9c:	e2470030 	sub	r0, r7, #48	; 0x30
  304fa0:	e3500009 	cmp	r0, #9
  304fa4:	9afffff9 	bls	304f90 <_vfprintf_r+0x9d8>
  304fa8:	e18aafca 	orr	sl, sl, sl, asr #31
  304fac:	eafffddc 	b	304724 <_vfprintf_r+0x16c>
  304fb0:	e3844080 	orr	r4, r4, #128	; 0x80
  304fb4:	e1a03001 	mov	r3, r1
  304fb8:	eafffdd7 	b	30471c <_vfprintf_r+0x164>
  304fbc:	e3843010 	orr	r3, r4, #16
  304fc0:	e58d3020 	str	r3, [sp, #32]
  304fc4:	e59d3020 	ldr	r3, [sp, #32]
  304fc8:	e2133010 	ands	r3, r3, #16
  304fcc:	e58d1028 	str	r1, [sp, #40]	; 0x28
  304fd0:	0a000081 	beq	3051dc <_vfprintf_r+0xc24>
  304fd4:	e59d1038 	ldr	r1, [sp, #56]	; 0x38
  304fd8:	e5913000 	ldr	r3, [r1]
  304fdc:	e2811004 	add	r1, r1, #4
  304fe0:	e3a02000 	mov	r2, #0
  304fe4:	e58d1038 	str	r1, [sp, #56]	; 0x38
  304fe8:	eaffffb8 	b	304ed0 <_vfprintf_r+0x918>
  304fec:	e3843010 	orr	r3, r4, #16
  304ff0:	e58d3020 	str	r3, [sp, #32]
  304ff4:	e59d3020 	ldr	r3, [sp, #32]
  304ff8:	e3130010 	tst	r3, #16
  304ffc:	e58d1028 	str	r1, [sp, #40]	; 0x28
  305000:	1affffad 	bne	304ebc <_vfprintf_r+0x904>
  305004:	e59d1038 	ldr	r1, [sp, #56]	; 0x38
  305008:	e59d3020 	ldr	r3, [sp, #32]
  30500c:	e3130040 	tst	r3, #64	; 0x40
  305010:	e1a03001 	mov	r3, r1
  305014:	11d130b0 	ldrhne	r3, [r1]
  305018:	e2811004 	add	r1, r1, #4
  30501c:	05933000 	ldreq	r3, [r3]
  305020:	e3a02001 	mov	r2, #1
  305024:	e58d1038 	str	r1, [sp, #56]	; 0x38
  305028:	eaffffa8 	b	304ed0 <_vfprintf_r+0x918>
  30502c:	e59f3ad0 	ldr	r3, [pc, #2768]	; 305b04 <_vfprintf_r+0x154c>
  305030:	e5cd2077 	strb	r2, [sp, #119]	; 0x77
  305034:	e59d2038 	ldr	r2, [sp, #56]	; 0x38
  305038:	e3140010 	tst	r4, #16
  30503c:	e58d3054 	str	r3, [sp, #84]	; 0x54
  305040:	e58d1028 	str	r1, [sp, #40]	; 0x28
  305044:	e58d4020 	str	r4, [sp, #32]
  305048:	e1a03002 	mov	r3, r2
  30504c:	1a00003f 	bne	305150 <_vfprintf_r+0xb98>
  305050:	e3140040 	tst	r4, #64	; 0x40
  305054:	0a00003d 	beq	305150 <_vfprintf_r+0xb98>
  305058:	e1d230b0 	ldrh	r3, [r2]
  30505c:	e3140001 	tst	r4, #1
  305060:	e2822004 	add	r2, r2, #4
  305064:	e58d2038 	str	r2, [sp, #56]	; 0x38
  305068:	0a00003d 	beq	305164 <_vfprintf_r+0xbac>
  30506c:	e3530000 	cmp	r3, #0
  305070:	0a00003b 	beq	305164 <_vfprintf_r+0xbac>
  305074:	e3a02030 	mov	r2, #48	; 0x30
  305078:	e3841002 	orr	r1, r4, #2
  30507c:	e5cd2078 	strb	r2, [sp, #120]	; 0x78
  305080:	e5cd7079 	strb	r7, [sp, #121]	; 0x79
  305084:	e58d1020 	str	r1, [sp, #32]
  305088:	e3a02002 	mov	r2, #2
  30508c:	eaffff8f 	b	304ed0 <_vfprintf_r+0x918>
  305090:	e3a03001 	mov	r3, #1
  305094:	e58d1028 	str	r1, [sp, #40]	; 0x28
  305098:	e3a02000 	mov	r2, #0
  30509c:	e1a01003 	mov	r1, r3
  3050a0:	e59d0038 	ldr	r0, [sp, #56]	; 0x38
  3050a4:	e58d3024 	str	r3, [sp, #36]	; 0x24
  3050a8:	e5903000 	ldr	r3, [r0]
  3050ac:	e5cd30a0 	strb	r3, [sp, #160]	; 0xa0
  3050b0:	e2803004 	add	r3, r0, #4
  3050b4:	e58d3038 	str	r3, [sp, #56]	; 0x38
  3050b8:	e28d30a0 	add	r3, sp, #160	; 0xa0
  3050bc:	e58d4020 	str	r4, [sp, #32]
  3050c0:	e5cd2077 	strb	r2, [sp, #119]	; 0x77
  3050c4:	e58d102c 	str	r1, [sp, #44]	; 0x2c
  3050c8:	e58d3044 	str	r3, [sp, #68]	; 0x44
  3050cc:	e3a03000 	mov	r3, #0
  3050d0:	e58d3040 	str	r3, [sp, #64]	; 0x40
  3050d4:	eafffe7a 	b	304ac4 <_vfprintf_r+0x50c>
  3050d8:	e58d4020 	str	r4, [sp, #32]
  3050dc:	e59d3020 	ldr	r3, [sp, #32]
  3050e0:	e3130010 	tst	r3, #16
  3050e4:	e58d1028 	str	r1, [sp, #40]	; 0x28
  3050e8:	e5cd2077 	strb	r2, [sp, #119]	; 0x77
  3050ec:	0a00007b 	beq	3052e0 <_vfprintf_r+0xd28>
  3050f0:	e59d2038 	ldr	r2, [sp, #56]	; 0x38
  3050f4:	e5923000 	ldr	r3, [r2]
  3050f8:	e2822004 	add	r2, r2, #4
  3050fc:	e58d2038 	str	r2, [sp, #56]	; 0x38
  305100:	e3530000 	cmp	r3, #0
  305104:	b3a0002d 	movlt	r0, #45	; 0x2d
  305108:	a5dd0077 	ldrbge	r0, [sp, #119]	; 0x77
  30510c:	b2633000 	rsblt	r3, r3, #0
  305110:	b5cd0077 	strblt	r0, [sp, #119]	; 0x77
  305114:	e58da040 	str	sl, [sp, #64]	; 0x40
  305118:	e3a02001 	mov	r2, #1
  30511c:	eaffff6f 	b	304ee0 <_vfprintf_r+0x928>
  305120:	e3844040 	orr	r4, r4, #64	; 0x40
  305124:	e1a03001 	mov	r3, r1
  305128:	eafffd7b 	b	30471c <_vfprintf_r+0x164>
  30512c:	e59f39d4 	ldr	r3, [pc, #2516]	; 305b08 <_vfprintf_r+0x1550>
  305130:	e5cd2077 	strb	r2, [sp, #119]	; 0x77
  305134:	e59d2038 	ldr	r2, [sp, #56]	; 0x38
  305138:	e3140010 	tst	r4, #16
  30513c:	e58d3054 	str	r3, [sp, #84]	; 0x54
  305140:	e58d1028 	str	r1, [sp, #40]	; 0x28
  305144:	e58d4020 	str	r4, [sp, #32]
  305148:	e1a03002 	mov	r3, r2
  30514c:	0affffbf 	beq	305050 <_vfprintf_r+0xa98>
  305150:	e2822004 	add	r2, r2, #4
  305154:	e3140001 	tst	r4, #1
  305158:	e5933000 	ldr	r3, [r3]
  30515c:	e58d2038 	str	r2, [sp, #56]	; 0x38
  305160:	1affffc1 	bne	30506c <_vfprintf_r+0xab4>
  305164:	e3a02002 	mov	r2, #2
  305168:	eaffff58 	b	304ed0 <_vfprintf_r+0x918>
  30516c:	e3140010 	tst	r4, #16
  305170:	e58d1028 	str	r1, [sp, #40]	; 0x28
  305174:	e5cd2077 	strb	r2, [sp, #119]	; 0x77
  305178:	1a00007e 	bne	305378 <_vfprintf_r+0xdc0>
  30517c:	e3140040 	tst	r4, #64	; 0x40
  305180:	0a00007c 	beq	305378 <_vfprintf_r+0xdc0>
  305184:	e59d2038 	ldr	r2, [sp, #56]	; 0x38
  305188:	e5923000 	ldr	r3, [r2]
  30518c:	e2822004 	add	r2, r2, #4
  305190:	e58d2038 	str	r2, [sp, #56]	; 0x38
  305194:	e1dd23b0 	ldrh	r2, [sp, #48]	; 0x30
  305198:	e1c320b0 	strh	r2, [r3]
  30519c:	eafffd3b 	b	304690 <_vfprintf_r+0xd8>
  3051a0:	e3a03000 	mov	r3, #0
  3051a4:	e2470030 	sub	r0, r7, #48	; 0x30
  3051a8:	e4d17001 	ldrb	r7, [r1], #1
  3051ac:	e0833103 	add	r3, r3, r3, lsl #2
  3051b0:	e0803083 	add	r3, r0, r3, lsl #1
  3051b4:	e2470030 	sub	r0, r7, #48	; 0x30
  3051b8:	e3500009 	cmp	r0, #9
  3051bc:	9afffff9 	bls	3051a8 <_vfprintf_r+0xbf0>
  3051c0:	e58d3034 	str	r3, [sp, #52]	; 0x34
  3051c4:	eafffd56 	b	304724 <_vfprintf_r+0x16c>
  3051c8:	e58d4020 	str	r4, [sp, #32]
  3051cc:	e59d3020 	ldr	r3, [sp, #32]
  3051d0:	e2133010 	ands	r3, r3, #16
  3051d4:	e58d1028 	str	r1, [sp, #40]	; 0x28
  3051d8:	1affff7d 	bne	304fd4 <_vfprintf_r+0xa1c>
  3051dc:	e59d2020 	ldr	r2, [sp, #32]
  3051e0:	e2122040 	ands	r2, r2, #64	; 0x40
  3051e4:	159d1038 	ldrne	r1, [sp, #56]	; 0x38
  3051e8:	059d1038 	ldreq	r1, [sp, #56]	; 0x38
  3051ec:	11a02003 	movne	r2, r3
  3051f0:	01a03001 	moveq	r3, r1
  3051f4:	11a03001 	movne	r3, r1
  3051f8:	e2811004 	add	r1, r1, #4
  3051fc:	11d330b0 	ldrhne	r3, [r3]
  305200:	05933000 	ldreq	r3, [r3]
  305204:	e58d1038 	str	r1, [sp, #56]	; 0x38
  305208:	eaffff30 	b	304ed0 <_vfprintf_r+0x918>
  30520c:	e59d3038 	ldr	r3, [sp, #56]	; 0x38
  305210:	e3140008 	tst	r4, #8
  305214:	e58d1028 	str	r1, [sp, #40]	; 0x28
  305218:	e5cd2077 	strb	r2, [sp, #119]	; 0x77
  30521c:	e1a0b00a 	mov	fp, sl
  305220:	e2835007 	add	r5, r3, #7
  305224:	0a0002af 	beq	305ce8 <_vfprintf_r+0x1730>
  305228:	e3c53007 	bic	r3, r5, #7
  30522c:	e2832008 	add	r2, r3, #8
  305230:	e58d2038 	str	r2, [sp, #56]	; 0x38
  305234:	e5932000 	ldr	r2, [r3]
  305238:	e5933004 	ldr	r3, [r3, #4]
  30523c:	e58d204c 	str	r2, [sp, #76]	; 0x4c
  305240:	e58d3050 	str	r3, [sp, #80]	; 0x50
  305244:	e28d004c 	add	r0, sp, #76	; 0x4c
  305248:	e8900003 	ldm	r0, {r0, r1}
  30524c:	ebfff9e4 	bl	3039e4 <__fpclassifyd>
  305250:	e3500001 	cmp	r0, #1
  305254:	e28d004c 	add	r0, sp, #76	; 0x4c
  305258:	e8900003 	ldm	r0, {r0, r1}
  30525c:	1a00023f 	bne	305b60 <_vfprintf_r+0x15a8>
  305260:	e3a03000 	mov	r3, #0
  305264:	e3a02000 	mov	r2, #0
  305268:	eb002039 	bl	30d354 <__aeabi_dcmplt>
  30526c:	e3500000 	cmp	r0, #0
  305270:	13a0302d 	movne	r3, #45	; 0x2d
  305274:	11a00003 	movne	r0, r3
  305278:	15cd3077 	strbne	r3, [sp, #119]	; 0x77
  30527c:	e3a03003 	mov	r3, #3
  305280:	e1a01003 	mov	r1, r3
  305284:	e58d3024 	str	r3, [sp, #36]	; 0x24
  305288:	e59f387c 	ldr	r3, [pc, #2172]	; 305b0c <_vfprintf_r+0x1554>
  30528c:	05dd0077 	ldrbeq	r0, [sp, #119]	; 0x77
  305290:	e3570047 	cmp	r7, #71	; 0x47
  305294:	e59f2874 	ldr	r2, [pc, #2164]	; 305b10 <_vfprintf_r+0x1558>
  305298:	d1a02003 	movle	r2, r3
  30529c:	e3a03000 	mov	r3, #0
  3052a0:	e3c4c080 	bic	ip, r4, #128	; 0x80
  3052a4:	e58dc020 	str	ip, [sp, #32]
  3052a8:	e58d102c 	str	r1, [sp, #44]	; 0x2c
  3052ac:	e58d2044 	str	r2, [sp, #68]	; 0x44
  3052b0:	e58d3040 	str	r3, [sp, #64]	; 0x40
  3052b4:	eafffdfd 	b	304ab0 <_vfprintf_r+0x4f8>
  3052b8:	e3844008 	orr	r4, r4, #8
  3052bc:	e1a03001 	mov	r3, r1
  3052c0:	eafffd15 	b	30471c <_vfprintf_r+0x164>
  3052c4:	e3843010 	orr	r3, r4, #16
  3052c8:	e58d3020 	str	r3, [sp, #32]
  3052cc:	e59d3020 	ldr	r3, [sp, #32]
  3052d0:	e3130010 	tst	r3, #16
  3052d4:	e58d1028 	str	r1, [sp, #40]	; 0x28
  3052d8:	e5cd2077 	strb	r2, [sp, #119]	; 0x77
  3052dc:	1affff83 	bne	3050f0 <_vfprintf_r+0xb38>
  3052e0:	e59d2038 	ldr	r2, [sp, #56]	; 0x38
  3052e4:	e59d3020 	ldr	r3, [sp, #32]
  3052e8:	e3130040 	tst	r3, #64	; 0x40
  3052ec:	e1a03002 	mov	r3, r2
  3052f0:	11d230f0 	ldrshne	r3, [r2]
  3052f4:	e2822004 	add	r2, r2, #4
  3052f8:	05933000 	ldreq	r3, [r3]
  3052fc:	e58d2038 	str	r2, [sp, #56]	; 0x38
  305300:	eaffff7e 	b	305100 <_vfprintf_r+0xb48>
  305304:	e3a03030 	mov	r3, #48	; 0x30
  305308:	e3a07078 	mov	r7, #120	; 0x78
  30530c:	e3842002 	orr	r2, r4, #2
  305310:	e58d2020 	str	r2, [sp, #32]
  305314:	e59d2038 	ldr	r2, [sp, #56]	; 0x38
  305318:	e58d1028 	str	r1, [sp, #40]	; 0x28
  30531c:	e59f17e4 	ldr	r1, [pc, #2020]	; 305b08 <_vfprintf_r+0x1550>
  305320:	e2822004 	add	r2, r2, #4
  305324:	e5cd3078 	strb	r3, [sp, #120]	; 0x78
  305328:	e5123004 	ldr	r3, [r2, #-4]
  30532c:	e5cd7079 	strb	r7, [sp, #121]	; 0x79
  305330:	e58d2038 	str	r2, [sp, #56]	; 0x38
  305334:	e58d1054 	str	r1, [sp, #84]	; 0x54
  305338:	e3a02002 	mov	r2, #2
  30533c:	eafffee3 	b	304ed0 <_vfprintf_r+0x918>
  305340:	e3570000 	cmp	r7, #0
  305344:	e58d1028 	str	r1, [sp, #40]	; 0x28
  305348:	e5cd2077 	strb	r2, [sp, #119]	; 0x77
  30534c:	0a0002d1 	beq	305e98 <_vfprintf_r+0x18e0>
  305350:	e3a03000 	mov	r3, #0
  305354:	e3a02001 	mov	r2, #1
  305358:	e5cd3077 	strb	r3, [sp, #119]	; 0x77
  30535c:	e28d30a0 	add	r3, sp, #160	; 0xa0
  305360:	e58d2024 	str	r2, [sp, #36]	; 0x24
  305364:	e5cd70a0 	strb	r7, [sp, #160]	; 0xa0
  305368:	e58d4020 	str	r4, [sp, #32]
  30536c:	e58d202c 	str	r2, [sp, #44]	; 0x2c
  305370:	e58d3044 	str	r3, [sp, #68]	; 0x44
  305374:	eaffff54 	b	3050cc <_vfprintf_r+0xb14>
  305378:	e59d2038 	ldr	r2, [sp, #56]	; 0x38
  30537c:	e5923000 	ldr	r3, [r2]
  305380:	e2822004 	add	r2, r2, #4
  305384:	e58d2038 	str	r2, [sp, #56]	; 0x38
  305388:	e59d2030 	ldr	r2, [sp, #48]	; 0x30
  30538c:	e5832000 	str	r2, [r3]
  305390:	eafffcbe 	b	304690 <_vfprintf_r+0xd8>
  305394:	e3570065 	cmp	r7, #101	; 0x65
  305398:	da000091 	ble	3055e4 <_vfprintf_r+0x102c>
  30539c:	e28d004c 	add	r0, sp, #76	; 0x4c
  3053a0:	e8900003 	ldm	r0, {r0, r1}
  3053a4:	e3a02000 	mov	r2, #0
  3053a8:	e3a03000 	mov	r3, #0
  3053ac:	eb001fe2 	bl	30d33c <__aeabi_dcmpeq>
  3053b0:	e3500000 	cmp	r0, #0
  3053b4:	0a000108 	beq	3057dc <_vfprintf_r+0x1224>
  3053b8:	e3a02001 	mov	r2, #1
  3053bc:	e59f3754 	ldr	r3, [pc, #1876]	; 305b18 <_vfprintf_r+0x1560>
  3053c0:	e0844002 	add	r4, r4, r2
  3053c4:	e3540007 	cmp	r4, #7
  3053c8:	e0855002 	add	r5, r5, r2
  3053cc:	e5892004 	str	r2, [r9, #4]
  3053d0:	e5893000 	str	r3, [r9]
  3053d4:	e58d4098 	str	r4, [sp, #152]	; 0x98
  3053d8:	e58d509c 	str	r5, [sp, #156]	; 0x9c
  3053dc:	d2899008 	addle	r9, r9, #8
  3053e0:	ca000269 	bgt	305d8c <_vfprintf_r+0x17d4>
  3053e4:	e59d307c 	ldr	r3, [sp, #124]	; 0x7c
  3053e8:	e59d2048 	ldr	r2, [sp, #72]	; 0x48
  3053ec:	e1530002 	cmp	r3, r2
  3053f0:	ba000002 	blt	305400 <_vfprintf_r+0xe48>
  3053f4:	e59d3020 	ldr	r3, [sp, #32]
  3053f8:	e3130001 	tst	r3, #1
  3053fc:	0afffe63 	beq	304d90 <_vfprintf_r+0x7d8>
  305400:	e59d3098 	ldr	r3, [sp, #152]	; 0x98
  305404:	e59d205c 	ldr	r2, [sp, #92]	; 0x5c
  305408:	e2833001 	add	r3, r3, #1
  30540c:	e59d1058 	ldr	r1, [sp, #88]	; 0x58
  305410:	e0855002 	add	r5, r5, r2
  305414:	e3530007 	cmp	r3, #7
  305418:	e8890006 	stm	r9, {r1, r2}
  30541c:	e58d509c 	str	r5, [sp, #156]	; 0x9c
  305420:	e58d3098 	str	r3, [sp, #152]	; 0x98
  305424:	d2899008 	addle	r9, r9, #8
  305428:	ca0002ee 	bgt	305fe8 <_vfprintf_r+0x1a30>
  30542c:	e59d3048 	ldr	r3, [sp, #72]	; 0x48
  305430:	e2436001 	sub	r6, r3, #1
  305434:	e3560000 	cmp	r6, #0
  305438:	dafffe54 	ble	304d90 <_vfprintf_r+0x7d8>
  30543c:	e3560010 	cmp	r6, #16
  305440:	da0001bb 	ble	305b34 <_vfprintf_r+0x157c>
  305444:	e28d4c05 	add	r4, sp, #1280	; 0x500
  305448:	e2844008 	add	r4, r4, #8
  30544c:	e5343470 	ldr	r3, [r4, #-1136]!	; 0x470
  305450:	e3a07010 	mov	r7, #16
  305454:	e59fb6c0 	ldr	fp, [pc, #1728]	; 305b1c <_vfprintf_r+0x1564>
  305458:	e2444004 	sub	r4, r4, #4
  30545c:	e59da01c 	ldr	sl, [sp, #28]
  305460:	ea000002 	b	305470 <_vfprintf_r+0xeb8>
  305464:	e2466010 	sub	r6, r6, #16
  305468:	e3560010 	cmp	r6, #16
  30546c:	da0001b2 	ble	305b3c <_vfprintf_r+0x1584>
  305470:	e2833001 	add	r3, r3, #1
  305474:	e3530007 	cmp	r3, #7
  305478:	e2855010 	add	r5, r5, #16
  30547c:	e589b000 	str	fp, [r9]
  305480:	e5897004 	str	r7, [r9, #4]
  305484:	e58d3098 	str	r3, [sp, #152]	; 0x98
  305488:	e58d509c 	str	r5, [sp, #156]	; 0x9c
  30548c:	d2899008 	addle	r9, r9, #8
  305490:	dafffff3 	ble	305464 <_vfprintf_r+0xeac>
  305494:	e1a0000a 	mov	r0, sl
  305498:	e1a01008 	mov	r1, r8
  30549c:	e1a02004 	mov	r2, r4
  3054a0:	eb001328 	bl	30a148 <__sprint_r>
  3054a4:	e3500000 	cmp	r0, #0
  3054a8:	1afffd25 	bne	304944 <_vfprintf_r+0x38c>
  3054ac:	e28d3098 	add	r3, sp, #152	; 0x98
  3054b0:	e28d9f42 	add	r9, sp, #264	; 0x108
  3054b4:	e8930028 	ldm	r3, {r3, r5}
  3054b8:	eaffffe9 	b	305464 <_vfprintf_r+0xeac>
  3054bc:	e3520000 	cmp	r2, #0
  3054c0:	1a000085 	bne	3056dc <_vfprintf_r+0x1124>
  3054c4:	e59d3020 	ldr	r3, [sp, #32]
  3054c8:	e3130001 	tst	r3, #1
  3054cc:	0a000122 	beq	30595c <_vfprintf_r+0x13a4>
  3054d0:	e3a03030 	mov	r3, #48	; 0x30
  3054d4:	e59d206c 	ldr	r2, [sp, #108]	; 0x6c
  3054d8:	e5cd30c7 	strb	r3, [sp, #199]	; 0xc7
  3054dc:	e59d3068 	ldr	r3, [sp, #104]	; 0x68
  3054e0:	e58d202c 	str	r2, [sp, #44]	; 0x2c
  3054e4:	e58d3044 	str	r3, [sp, #68]	; 0x44
  3054e8:	eafffe94 	b	304f40 <_vfprintf_r+0x988>
  3054ec:	e59d3034 	ldr	r3, [sp, #52]	; 0x34
  3054f0:	e59d2024 	ldr	r2, [sp, #36]	; 0x24
  3054f4:	e062a003 	rsb	sl, r2, r3
  3054f8:	e35a0000 	cmp	sl, #0
  3054fc:	dafffdd8 	ble	304c64 <_vfprintf_r+0x6ac>
  305500:	e35a0010 	cmp	sl, #16
  305504:	d59fb610 	ldrle	fp, [pc, #1552]	; 305b1c <_vfprintf_r+0x1564>
  305508:	da000022 	ble	305598 <_vfprintf_r+0xfe0>
  30550c:	e59fb608 	ldr	fp, [pc, #1544]	; 305b1c <_vfprintf_r+0x1564>
  305510:	e28d3094 	add	r3, sp, #148	; 0x94
  305514:	e58d703c 	str	r7, [sp, #60]	; 0x3c
  305518:	e3a06010 	mov	r6, #16
  30551c:	e1a0700b 	mov	r7, fp
  305520:	e1a0b00a 	mov	fp, sl
  305524:	e1a0a003 	mov	sl, r3
  305528:	ea000002 	b	305538 <_vfprintf_r+0xf80>
  30552c:	e24bb010 	sub	fp, fp, #16
  305530:	e35b0010 	cmp	fp, #16
  305534:	da000014 	ble	30558c <_vfprintf_r+0xfd4>
  305538:	e2844001 	add	r4, r4, #1
  30553c:	e3540007 	cmp	r4, #7
  305540:	e2855010 	add	r5, r5, #16
  305544:	e5897000 	str	r7, [r9]
  305548:	e5896004 	str	r6, [r9, #4]
  30554c:	e58d4098 	str	r4, [sp, #152]	; 0x98
  305550:	e58d509c 	str	r5, [sp, #156]	; 0x9c
  305554:	d2899008 	addle	r9, r9, #8
  305558:	dafffff3 	ble	30552c <_vfprintf_r+0xf74>
  30555c:	e59d001c 	ldr	r0, [sp, #28]
  305560:	e1a01008 	mov	r1, r8
  305564:	e1a0200a 	mov	r2, sl
  305568:	eb0012f6 	bl	30a148 <__sprint_r>
  30556c:	e3500000 	cmp	r0, #0
  305570:	1afffcf3 	bne	304944 <_vfprintf_r+0x38c>
  305574:	e24bb010 	sub	fp, fp, #16
  305578:	e28d4098 	add	r4, sp, #152	; 0x98
  30557c:	e35b0010 	cmp	fp, #16
  305580:	e28d9f42 	add	r9, sp, #264	; 0x108
  305584:	e8940030 	ldm	r4, {r4, r5}
  305588:	caffffea 	bgt	305538 <_vfprintf_r+0xf80>
  30558c:	e1a0a00b 	mov	sl, fp
  305590:	e1a0b007 	mov	fp, r7
  305594:	e59d703c 	ldr	r7, [sp, #60]	; 0x3c
  305598:	e2844001 	add	r4, r4, #1
  30559c:	e3540007 	cmp	r4, #7
  3055a0:	e085500a 	add	r5, r5, sl
  3055a4:	e589b000 	str	fp, [r9]
  3055a8:	e589a004 	str	sl, [r9, #4]
  3055ac:	e58d4098 	str	r4, [sp, #152]	; 0x98
  3055b0:	e58d509c 	str	r5, [sp, #156]	; 0x9c
  3055b4:	d2899008 	addle	r9, r9, #8
  3055b8:	dafffda9 	ble	304c64 <_vfprintf_r+0x6ac>
  3055bc:	e28d2094 	add	r2, sp, #148	; 0x94
  3055c0:	e59d001c 	ldr	r0, [sp, #28]
  3055c4:	e1a01008 	mov	r1, r8
  3055c8:	eb0012de 	bl	30a148 <__sprint_r>
  3055cc:	e3500000 	cmp	r0, #0
  3055d0:	1afffcdb 	bne	304944 <_vfprintf_r+0x38c>
  3055d4:	e28d4098 	add	r4, sp, #152	; 0x98
  3055d8:	e28d9f42 	add	r9, sp, #264	; 0x108
  3055dc:	e8940030 	ldm	r4, {r4, r5}
  3055e0:	eafffd9f 	b	304c64 <_vfprintf_r+0x6ac>
  3055e4:	e59d3048 	ldr	r3, [sp, #72]	; 0x48
  3055e8:	e3530001 	cmp	r3, #1
  3055ec:	da000106 	ble	305a0c <_vfprintf_r+0x1454>
  3055f0:	e3a03001 	mov	r3, #1
  3055f4:	e59d2044 	ldr	r2, [sp, #68]	; 0x44
  3055f8:	e0844003 	add	r4, r4, r3
  3055fc:	e3540007 	cmp	r4, #7
  305600:	e0855003 	add	r5, r5, r3
  305604:	e889000c 	stm	r9, {r2, r3}
  305608:	e58d4098 	str	r4, [sp, #152]	; 0x98
  30560c:	e58d509c 	str	r5, [sp, #156]	; 0x9c
  305610:	d2899008 	addle	r9, r9, #8
  305614:	ca000112 	bgt	305a64 <_vfprintf_r+0x14ac>
  305618:	e59d305c 	ldr	r3, [sp, #92]	; 0x5c
  30561c:	e2844001 	add	r4, r4, #1
  305620:	e59d2058 	ldr	r2, [sp, #88]	; 0x58
  305624:	e3540007 	cmp	r4, #7
  305628:	e0855003 	add	r5, r5, r3
  30562c:	e889000c 	stm	r9, {r2, r3}
  305630:	e58d4098 	str	r4, [sp, #152]	; 0x98
  305634:	e58d509c 	str	r5, [sp, #156]	; 0x9c
  305638:	d2899008 	addle	r9, r9, #8
  30563c:	ca000125 	bgt	305ad8 <_vfprintf_r+0x1520>
  305640:	e28d004c 	add	r0, sp, #76	; 0x4c
  305644:	e8900003 	ldm	r0, {r0, r1}
  305648:	e3a02000 	mov	r2, #0
  30564c:	e3a03000 	mov	r3, #0
  305650:	eb001f39 	bl	30d33c <__aeabi_dcmpeq>
  305654:	e3500000 	cmp	r0, #0
  305658:	1a0000c3 	bne	30596c <_vfprintf_r+0x13b4>
  30565c:	e59d3048 	ldr	r3, [sp, #72]	; 0x48
  305660:	e59d2044 	ldr	r2, [sp, #68]	; 0x44
  305664:	e2844001 	add	r4, r4, #1
  305668:	e2433001 	sub	r3, r3, #1
  30566c:	e2822001 	add	r2, r2, #1
  305670:	e0855003 	add	r5, r5, r3
  305674:	e3540007 	cmp	r4, #7
  305678:	e58d4098 	str	r4, [sp, #152]	; 0x98
  30567c:	e5892000 	str	r2, [r9]
  305680:	e58d509c 	str	r5, [sp, #156]	; 0x9c
  305684:	e5893004 	str	r3, [r9, #4]
  305688:	ca000108 	bgt	305ab0 <_vfprintf_r+0x14f8>
  30568c:	e2899008 	add	r9, r9, #8
  305690:	e59d2064 	ldr	r2, [sp, #100]	; 0x64
  305694:	e2844001 	add	r4, r4, #1
  305698:	e0825005 	add	r5, r2, r5
  30569c:	e28d3084 	add	r3, sp, #132	; 0x84
  3056a0:	e3540007 	cmp	r4, #7
  3056a4:	e58d4098 	str	r4, [sp, #152]	; 0x98
  3056a8:	e58d509c 	str	r5, [sp, #156]	; 0x9c
  3056ac:	e5892004 	str	r2, [r9, #4]
  3056b0:	e5893000 	str	r3, [r9]
  3056b4:	dafffdb4 	ble	304d8c <_vfprintf_r+0x7d4>
  3056b8:	e28d2094 	add	r2, sp, #148	; 0x94
  3056bc:	e59d001c 	ldr	r0, [sp, #28]
  3056c0:	e1a01008 	mov	r1, r8
  3056c4:	eb00129f 	bl	30a148 <__sprint_r>
  3056c8:	e3500000 	cmp	r0, #0
  3056cc:	1afffc9c 	bne	304944 <_vfprintf_r+0x38c>
  3056d0:	e28d9f42 	add	r9, sp, #264	; 0x108
  3056d4:	e59d509c 	ldr	r5, [sp, #156]	; 0x9c
  3056d8:	eafffdac 	b	304d90 <_vfprintf_r+0x7d8>
  3056dc:	e28d30c8 	add	r3, sp, #200	; 0xc8
  3056e0:	e58d102c 	str	r1, [sp, #44]	; 0x2c
  3056e4:	e58d3044 	str	r3, [sp, #68]	; 0x44
  3056e8:	eafffe14 	b	304f40 <_vfprintf_r+0x988>
  3056ec:	e2842001 	add	r2, r4, #1
  3056f0:	e59d1044 	ldr	r1, [sp, #68]	; 0x44
  3056f4:	e3520007 	cmp	r2, #7
  3056f8:	e0835005 	add	r5, r3, r5
  3056fc:	e889000a 	stm	r9, {r1, r3}
  305700:	e58d2098 	str	r2, [sp, #152]	; 0x98
  305704:	e58d509c 	str	r5, [sp, #156]	; 0x9c
  305708:	d2899008 	addle	r9, r9, #8
  30570c:	ca0002b9 	bgt	3061f8 <_vfprintf_r+0x1c40>
  305710:	e59d0044 	ldr	r0, [sp, #68]	; 0x44
  305714:	e59d105c 	ldr	r1, [sp, #92]	; 0x5c
  305718:	e2822001 	add	r2, r2, #1
  30571c:	e0806003 	add	r6, r0, r3
  305720:	e59d0058 	ldr	r0, [sp, #88]	; 0x58
  305724:	e3520007 	cmp	r2, #7
  305728:	e0855001 	add	r5, r5, r1
  30572c:	e8890003 	stm	r9, {r0, r1}
  305730:	e58d2098 	str	r2, [sp, #152]	; 0x98
  305734:	e58d509c 	str	r5, [sp, #156]	; 0x9c
  305738:	d2899008 	addle	r9, r9, #8
  30573c:	ca000284 	bgt	306154 <_vfprintf_r+0x1b9c>
  305740:	e59d1048 	ldr	r1, [sp, #72]	; 0x48
  305744:	e2822001 	add	r2, r2, #1
  305748:	e0634001 	rsb	r4, r3, r1
  30574c:	e0845005 	add	r5, r4, r5
  305750:	e3520007 	cmp	r2, #7
  305754:	e58d509c 	str	r5, [sp, #156]	; 0x9c
  305758:	e5894004 	str	r4, [r9, #4]
  30575c:	e58d2098 	str	r2, [sp, #152]	; 0x98
  305760:	e5896000 	str	r6, [r9]
  305764:	dafffd88 	ble	304d8c <_vfprintf_r+0x7d4>
  305768:	e28d2094 	add	r2, sp, #148	; 0x94
  30576c:	e59d001c 	ldr	r0, [sp, #28]
  305770:	e1a01008 	mov	r1, r8
  305774:	eb001273 	bl	30a148 <__sprint_r>
  305778:	e3500000 	cmp	r0, #0
  30577c:	1afffc70 	bne	304944 <_vfprintf_r+0x38c>
  305780:	e59d509c 	ldr	r5, [sp, #156]	; 0x9c
  305784:	e28d9f42 	add	r9, sp, #264	; 0x108
  305788:	eafffd80 	b	304d90 <_vfprintf_r+0x7d8>
  30578c:	e28d2094 	add	r2, sp, #148	; 0x94
  305790:	e59d001c 	ldr	r0, [sp, #28]
  305794:	e1a01008 	mov	r1, r8
  305798:	eb00126a 	bl	30a148 <__sprint_r>
  30579c:	e3500000 	cmp	r0, #0
  3057a0:	1afffc67 	bne	304944 <_vfprintf_r+0x38c>
  3057a4:	e28d4098 	add	r4, sp, #152	; 0x98
  3057a8:	e28d9f42 	add	r9, sp, #264	; 0x108
  3057ac:	e8940030 	ldm	r4, {r4, r5}
  3057b0:	eafffd1b 	b	304c24 <_vfprintf_r+0x66c>
  3057b4:	e28d2094 	add	r2, sp, #148	; 0x94
  3057b8:	e59d001c 	ldr	r0, [sp, #28]
  3057bc:	e1a01008 	mov	r1, r8
  3057c0:	eb001260 	bl	30a148 <__sprint_r>
  3057c4:	e3500000 	cmp	r0, #0
  3057c8:	1afffc5d 	bne	304944 <_vfprintf_r+0x38c>
  3057cc:	e28d4098 	add	r4, sp, #152	; 0x98
  3057d0:	e28d9f42 	add	r9, sp, #264	; 0x108
  3057d4:	e8940030 	ldm	r4, {r4, r5}
  3057d8:	eafffd1e 	b	304c58 <_vfprintf_r+0x6a0>
  3057dc:	e59d307c 	ldr	r3, [sp, #124]	; 0x7c
  3057e0:	e3530000 	cmp	r3, #0
  3057e4:	da000171 	ble	305db0 <_vfprintf_r+0x17f8>
  3057e8:	e59d2048 	ldr	r2, [sp, #72]	; 0x48
  3057ec:	e1530002 	cmp	r3, r2
  3057f0:	baffffbd 	blt	3056ec <_vfprintf_r+0x1134>
  3057f4:	e2844001 	add	r4, r4, #1
  3057f8:	e59d1044 	ldr	r1, [sp, #68]	; 0x44
  3057fc:	e3540007 	cmp	r4, #7
  305800:	e0825005 	add	r5, r2, r5
  305804:	e8890006 	stm	r9, {r1, r2}
  305808:	e58d4098 	str	r4, [sp, #152]	; 0x98
  30580c:	e58d509c 	str	r5, [sp, #156]	; 0x9c
  305810:	d2899008 	addle	r9, r9, #8
  305814:	ca000282 	bgt	306224 <_vfprintf_r+0x1c6c>
  305818:	e59d2048 	ldr	r2, [sp, #72]	; 0x48
  30581c:	e0624003 	rsb	r4, r2, r3
  305820:	e3540000 	cmp	r4, #0
  305824:	da00014a 	ble	305d54 <_vfprintf_r+0x179c>
  305828:	e3540010 	cmp	r4, #16
  30582c:	da000135 	ble	305d08 <_vfprintf_r+0x1750>
  305830:	e28d7c05 	add	r7, sp, #1280	; 0x500
  305834:	e2877008 	add	r7, r7, #8
  305838:	e5373470 	ldr	r3, [r7, #-1136]!	; 0x470
  30583c:	e3a06010 	mov	r6, #16
  305840:	e59fb2d4 	ldr	fp, [pc, #724]	; 305b1c <_vfprintf_r+0x1564>
  305844:	e2477004 	sub	r7, r7, #4
  305848:	e59da01c 	ldr	sl, [sp, #28]
  30584c:	ea000002 	b	30585c <_vfprintf_r+0x12a4>
  305850:	e2444010 	sub	r4, r4, #16
  305854:	e3540010 	cmp	r4, #16
  305858:	da00012c 	ble	305d10 <_vfprintf_r+0x1758>
  30585c:	e2833001 	add	r3, r3, #1
  305860:	e3530007 	cmp	r3, #7
  305864:	e2855010 	add	r5, r5, #16
  305868:	e589b000 	str	fp, [r9]
  30586c:	e5896004 	str	r6, [r9, #4]
  305870:	e58d3098 	str	r3, [sp, #152]	; 0x98
  305874:	e58d509c 	str	r5, [sp, #156]	; 0x9c
  305878:	d2899008 	addle	r9, r9, #8
  30587c:	dafffff3 	ble	305850 <_vfprintf_r+0x1298>
  305880:	e1a0000a 	mov	r0, sl
  305884:	e1a01008 	mov	r1, r8
  305888:	e1a02007 	mov	r2, r7
  30588c:	eb00122d 	bl	30a148 <__sprint_r>
  305890:	e3500000 	cmp	r0, #0
  305894:	1afffc2a 	bne	304944 <_vfprintf_r+0x38c>
  305898:	e28d3098 	add	r3, sp, #152	; 0x98
  30589c:	e28d9f42 	add	r9, sp, #264	; 0x108
  3058a0:	e8930028 	ldm	r3, {r3, r5}
  3058a4:	eaffffe9 	b	305850 <_vfprintf_r+0x1298>
  3058a8:	e28d20c8 	add	r2, sp, #200	; 0xc8
  3058ac:	e1a01002 	mov	r1, r2
  3058b0:	e2032007 	and	r2, r3, #7
  3058b4:	e2822030 	add	r2, r2, #48	; 0x30
  3058b8:	e1b031a3 	lsrs	r3, r3, #3
  3058bc:	e5612001 	strb	r2, [r1, #-1]!
  3058c0:	1afffffa 	bne	3058b0 <_vfprintf_r+0x12f8>
  3058c4:	e1a03001 	mov	r3, r1
  3058c8:	e58d1044 	str	r1, [sp, #68]	; 0x44
  3058cc:	e59d1020 	ldr	r1, [sp, #32]
  3058d0:	e3110001 	tst	r1, #1
  3058d4:	0a000047 	beq	3059f8 <_vfprintf_r+0x1440>
  3058d8:	e3520030 	cmp	r2, #48	; 0x30
  3058dc:	0a000045 	beq	3059f8 <_vfprintf_r+0x1440>
  3058e0:	e59d1044 	ldr	r1, [sp, #68]	; 0x44
  3058e4:	e2411001 	sub	r1, r1, #1
  3058e8:	e1a0c001 	mov	ip, r1
  3058ec:	e3a02030 	mov	r2, #48	; 0x30
  3058f0:	e58d1044 	str	r1, [sp, #68]	; 0x44
  3058f4:	e28d10c8 	add	r1, sp, #200	; 0xc8
  3058f8:	e06c1001 	rsb	r1, ip, r1
  3058fc:	e58d102c 	str	r1, [sp, #44]	; 0x2c
  305900:	e5432001 	strb	r2, [r3, #-1]
  305904:	eafffd8d 	b	304f40 <_vfprintf_r+0x988>
  305908:	e3530009 	cmp	r3, #9
  30590c:	e28d10c8 	add	r1, sp, #200	; 0xc8
  305910:	9a000009 	bls	30593c <_vfprintf_r+0x1384>
  305914:	e59fc1f8 	ldr	ip, [pc, #504]	; 305b14 <_vfprintf_r+0x155c>
  305918:	e08c2c93 	umull	r2, ip, r3, ip
  30591c:	e1a0c1ac 	lsr	ip, ip, #3
  305920:	e08c210c 	add	r2, ip, ip, lsl #2
  305924:	e0432082 	sub	r2, r3, r2, lsl #1
  305928:	e2822030 	add	r2, r2, #48	; 0x30
  30592c:	e35c0009 	cmp	ip, #9
  305930:	e1a0300c 	mov	r3, ip
  305934:	e5612001 	strb	r2, [r1, #-1]!
  305938:	8afffff5 	bhi	305914 <_vfprintf_r+0x135c>
  30593c:	e2833030 	add	r3, r3, #48	; 0x30
  305940:	e2412001 	sub	r2, r1, #1
  305944:	e5413001 	strb	r3, [r1, #-1]
  305948:	e28d30c8 	add	r3, sp, #200	; 0xc8
  30594c:	e0623003 	rsb	r3, r2, r3
  305950:	e58d2044 	str	r2, [sp, #68]	; 0x44
  305954:	e58d302c 	str	r3, [sp, #44]	; 0x2c
  305958:	eafffd78 	b	304f40 <_vfprintf_r+0x988>
  30595c:	e28d30c8 	add	r3, sp, #200	; 0xc8
  305960:	e58d202c 	str	r2, [sp, #44]	; 0x2c
  305964:	e58d3044 	str	r3, [sp, #68]	; 0x44
  305968:	eafffd74 	b	304f40 <_vfprintf_r+0x988>
  30596c:	e59d3048 	ldr	r3, [sp, #72]	; 0x48
  305970:	e2437001 	sub	r7, r3, #1
  305974:	e3570000 	cmp	r7, #0
  305978:	daffff44 	ble	305690 <_vfprintf_r+0x10d8>
  30597c:	e3570010 	cmp	r7, #16
  305980:	d59fb194 	ldrle	fp, [pc, #404]	; 305b1c <_vfprintf_r+0x1564>
  305984:	da000041 	ble	305a90 <_vfprintf_r+0x14d8>
  305988:	e28d6094 	add	r6, sp, #148	; 0x94
  30598c:	e1a03006 	mov	r3, r6
  305990:	e59fb184 	ldr	fp, [pc, #388]	; 305b1c <_vfprintf_r+0x1564>
  305994:	e3a0a010 	mov	sl, #16
  305998:	e1a0600b 	mov	r6, fp
  30599c:	e1a0b003 	mov	fp, r3
  3059a0:	ea000002 	b	3059b0 <_vfprintf_r+0x13f8>
  3059a4:	e2477010 	sub	r7, r7, #16
  3059a8:	e3570010 	cmp	r7, #16
  3059ac:	da000036 	ble	305a8c <_vfprintf_r+0x14d4>
  3059b0:	e2844001 	add	r4, r4, #1
  3059b4:	e3540007 	cmp	r4, #7
  3059b8:	e2855010 	add	r5, r5, #16
  3059bc:	e8890440 	stm	r9, {r6, sl}
  3059c0:	e58d4098 	str	r4, [sp, #152]	; 0x98
  3059c4:	e58d509c 	str	r5, [sp, #156]	; 0x9c
  3059c8:	d2899008 	addle	r9, r9, #8
  3059cc:	dafffff4 	ble	3059a4 <_vfprintf_r+0x13ec>
  3059d0:	e59d001c 	ldr	r0, [sp, #28]
  3059d4:	e1a01008 	mov	r1, r8
  3059d8:	e1a0200b 	mov	r2, fp
  3059dc:	eb0011d9 	bl	30a148 <__sprint_r>
  3059e0:	e3500000 	cmp	r0, #0
  3059e4:	1afffbd6 	bne	304944 <_vfprintf_r+0x38c>
  3059e8:	e28d4098 	add	r4, sp, #152	; 0x98
  3059ec:	e28d9f42 	add	r9, sp, #264	; 0x108
  3059f0:	e8940030 	ldm	r4, {r4, r5}
  3059f4:	eaffffea 	b	3059a4 <_vfprintf_r+0x13ec>
  3059f8:	e59d2044 	ldr	r2, [sp, #68]	; 0x44
  3059fc:	e28d30c8 	add	r3, sp, #200	; 0xc8
  305a00:	e0623003 	rsb	r3, r2, r3
  305a04:	e58d302c 	str	r3, [sp, #44]	; 0x2c
  305a08:	eafffd4c 	b	304f40 <_vfprintf_r+0x988>
  305a0c:	e59d3020 	ldr	r3, [sp, #32]
  305a10:	e3130001 	tst	r3, #1
  305a14:	1afffef5 	bne	3055f0 <_vfprintf_r+0x1038>
  305a18:	e3a03001 	mov	r3, #1
  305a1c:	e59d2044 	ldr	r2, [sp, #68]	; 0x44
  305a20:	e0844003 	add	r4, r4, r3
  305a24:	e0855003 	add	r5, r5, r3
  305a28:	e3540007 	cmp	r4, #7
  305a2c:	e58d4098 	str	r4, [sp, #152]	; 0x98
  305a30:	e58d509c 	str	r5, [sp, #156]	; 0x9c
  305a34:	e889000c 	stm	r9, {r2, r3}
  305a38:	daffff13 	ble	30568c <_vfprintf_r+0x10d4>
  305a3c:	e28d2094 	add	r2, sp, #148	; 0x94
  305a40:	e59d001c 	ldr	r0, [sp, #28]
  305a44:	e1a01008 	mov	r1, r8
  305a48:	eb0011be 	bl	30a148 <__sprint_r>
  305a4c:	e3500000 	cmp	r0, #0
  305a50:	1afffbbb 	bne	304944 <_vfprintf_r+0x38c>
  305a54:	e28d4098 	add	r4, sp, #152	; 0x98
  305a58:	e28d9f42 	add	r9, sp, #264	; 0x108
  305a5c:	e8940030 	ldm	r4, {r4, r5}
  305a60:	eaffff0a 	b	305690 <_vfprintf_r+0x10d8>
  305a64:	e28d2094 	add	r2, sp, #148	; 0x94
  305a68:	e59d001c 	ldr	r0, [sp, #28]
  305a6c:	e1a01008 	mov	r1, r8
  305a70:	eb0011b4 	bl	30a148 <__sprint_r>
  305a74:	e3500000 	cmp	r0, #0
  305a78:	1afffbb1 	bne	304944 <_vfprintf_r+0x38c>
  305a7c:	e28d4098 	add	r4, sp, #152	; 0x98
  305a80:	e28d9f42 	add	r9, sp, #264	; 0x108
  305a84:	e8940030 	ldm	r4, {r4, r5}
  305a88:	eafffee2 	b	305618 <_vfprintf_r+0x1060>
  305a8c:	e1a0b006 	mov	fp, r6
  305a90:	e2844001 	add	r4, r4, #1
  305a94:	e0855007 	add	r5, r5, r7
  305a98:	e3540007 	cmp	r4, #7
  305a9c:	e58d4098 	str	r4, [sp, #152]	; 0x98
  305aa0:	e58d509c 	str	r5, [sp, #156]	; 0x9c
  305aa4:	e589b000 	str	fp, [r9]
  305aa8:	e5897004 	str	r7, [r9, #4]
  305aac:	dafffef6 	ble	30568c <_vfprintf_r+0x10d4>
  305ab0:	e28d2094 	add	r2, sp, #148	; 0x94
  305ab4:	e59d001c 	ldr	r0, [sp, #28]
  305ab8:	e1a01008 	mov	r1, r8
  305abc:	eb0011a1 	bl	30a148 <__sprint_r>
  305ac0:	e3500000 	cmp	r0, #0
  305ac4:	1afffb9e 	bne	304944 <_vfprintf_r+0x38c>
  305ac8:	e28d4098 	add	r4, sp, #152	; 0x98
  305acc:	e8940030 	ldm	r4, {r4, r5}
  305ad0:	e28d9f42 	add	r9, sp, #264	; 0x108
  305ad4:	eafffeed 	b	305690 <_vfprintf_r+0x10d8>
  305ad8:	e28d2094 	add	r2, sp, #148	; 0x94
  305adc:	e59d001c 	ldr	r0, [sp, #28]
  305ae0:	e1a01008 	mov	r1, r8
  305ae4:	eb001197 	bl	30a148 <__sprint_r>
  305ae8:	e3500000 	cmp	r0, #0
  305aec:	1afffb94 	bne	304944 <_vfprintf_r+0x38c>
  305af0:	e28d4098 	add	r4, sp, #152	; 0x98
  305af4:	e28d9f42 	add	r9, sp, #264	; 0x108
  305af8:	e8940030 	ldm	r4, {r4, r5}
  305afc:	eafffecf 	b	305640 <_vfprintf_r+0x1088>
  305b00:	0030e1dc 	ldrsbteq	lr, [r0], -ip
  305b04:	0030e3fc 	ldrshteq	lr, [r0], -ip
  305b08:	0030e410 	eorseq	lr, r0, r0, lsl r4
  305b0c:	0030e3ec 	eorseq	lr, r0, ip, ror #7
  305b10:	0030e3f0 	ldrshteq	lr, [r0], -r0
  305b14:	cccccccd 	stclgt	12, cr12, [ip], {205}	; 0xcd
  305b18:	0030e42c 	eorseq	lr, r0, ip, lsr #8
  305b1c:	0030e1ec 	eorseq	lr, r0, ip, ror #3
  305b20:	0030e3f4 	ldrshteq	lr, [r0], -r4
  305b24:	0030e3f8 	ldrshteq	lr, [r0], -r8
  305b28:	0030e1dc 	ldrsbteq	lr, [r0], -ip
  305b2c:	0030e424 	eorseq	lr, r0, r4, lsr #8
  305b30:	66666667 	strbtvs	r6, [r6], -r7, ror #12
  305b34:	e59d3098 	ldr	r3, [sp, #152]	; 0x98
  305b38:	e51fb024 	ldr	fp, [pc, #-36]	; 305b1c <_vfprintf_r+0x1564>
  305b3c:	e2833001 	add	r3, r3, #1
  305b40:	e0855006 	add	r5, r5, r6
  305b44:	e3530007 	cmp	r3, #7
  305b48:	e58d3098 	str	r3, [sp, #152]	; 0x98
  305b4c:	e58d509c 	str	r5, [sp, #156]	; 0x9c
  305b50:	e589b000 	str	fp, [r9]
  305b54:	e5896004 	str	r6, [r9, #4]
  305b58:	dafffc8b 	ble	304d8c <_vfprintf_r+0x7d4>
  305b5c:	eaffff01 	b	305768 <_vfprintf_r+0x11b0>
  305b60:	ebfff79f 	bl	3039e4 <__fpclassifyd>
  305b64:	e3500000 	cmp	r0, #0
  305b68:	0a0000d4 	beq	305ec0 <_vfprintf_r+0x1908>
  305b6c:	e3c73020 	bic	r3, r7, #32
  305b70:	e37a0001 	cmn	sl, #1
  305b74:	e58d303c 	str	r3, [sp, #60]	; 0x3c
  305b78:	03a0b006 	moveq	fp, #6
  305b7c:	0a0000f6 	beq	305f5c <_vfprintf_r+0x19a4>
  305b80:	e3530047 	cmp	r3, #71	; 0x47
  305b84:	035a0000 	cmpeq	sl, #0
  305b88:	1a0000f3 	bne	305f5c <_vfprintf_r+0x19a4>
  305b8c:	e3a02047 	mov	r2, #71	; 0x47
  305b90:	e59d3050 	ldr	r3, [sp, #80]	; 0x50
  305b94:	e58d203c 	str	r2, [sp, #60]	; 0x3c
  305b98:	e3530000 	cmp	r3, #0
  305b9c:	e3842c01 	orr	r2, r4, #256	; 0x100
  305ba0:	e3a0b001 	mov	fp, #1
  305ba4:	e58d2020 	str	r2, [sp, #32]
  305ba8:	ba0001e2 	blt	306338 <_vfprintf_r+0x1d80>
  305bac:	e58d302c 	str	r3, [sp, #44]	; 0x2c
  305bb0:	e59d304c 	ldr	r3, [sp, #76]	; 0x4c
  305bb4:	e58d3024 	str	r3, [sp, #36]	; 0x24
  305bb8:	e3a03000 	mov	r3, #0
  305bbc:	e58d3040 	str	r3, [sp, #64]	; 0x40
  305bc0:	e3a00002 	mov	r0, #2
  305bc4:	e28da088 	add	sl, sp, #136	; 0x88
  305bc8:	e24a100c 	sub	r1, sl, #12
  305bcc:	e58d1008 	str	r1, [sp, #8]
  305bd0:	e28d6098 	add	r6, sp, #152	; 0x98
  305bd4:	e24a1008 	sub	r1, sl, #8
  305bd8:	e58d100c 	str	r1, [sp, #12]
  305bdc:	e246100c 	sub	r1, r6, #12
  305be0:	e59d302c 	ldr	r3, [sp, #44]	; 0x2c
  305be4:	e58d0000 	str	r0, [sp]
  305be8:	e59d2024 	ldr	r2, [sp, #36]	; 0x24
  305bec:	e58db004 	str	fp, [sp, #4]
  305bf0:	e58d1010 	str	r1, [sp, #16]
  305bf4:	e59d001c 	ldr	r0, [sp, #28]
  305bf8:	eb000320 	bl	306880 <_dtoa_r>
  305bfc:	e59d303c 	ldr	r3, [sp, #60]	; 0x3c
  305c00:	e3530047 	cmp	r3, #71	; 0x47
  305c04:	e58d0044 	str	r0, [sp, #68]	; 0x44
  305c08:	1a0001f0 	bne	3063d0 <_vfprintf_r+0x1e18>
  305c0c:	e3140001 	tst	r4, #1
  305c10:	0a0001d0 	beq	306358 <_vfprintf_r+0x1da0>
  305c14:	e59d3044 	ldr	r3, [sp, #68]	; 0x44
  305c18:	e083500b 	add	r5, r3, fp
  305c1c:	e3a03000 	mov	r3, #0
  305c20:	e59d0024 	ldr	r0, [sp, #36]	; 0x24
  305c24:	e59d102c 	ldr	r1, [sp, #44]	; 0x2c
  305c28:	e3a02000 	mov	r2, #0
  305c2c:	eb001dc2 	bl	30d33c <__aeabi_dcmpeq>
  305c30:	e3500000 	cmp	r0, #0
  305c34:	11a03005 	movne	r3, r5
  305c38:	1a000009 	bne	305c64 <_vfprintf_r+0x16ac>
  305c3c:	e59d308c 	ldr	r3, [sp, #140]	; 0x8c
  305c40:	e1550003 	cmp	r5, r3
  305c44:	9a000006 	bls	305c64 <_vfprintf_r+0x16ac>
  305c48:	e3a01030 	mov	r1, #48	; 0x30
  305c4c:	e2832001 	add	r2, r3, #1
  305c50:	e58d208c 	str	r2, [sp, #140]	; 0x8c
  305c54:	e5c31000 	strb	r1, [r3]
  305c58:	e59d308c 	ldr	r3, [sp, #140]	; 0x8c
  305c5c:	e1550003 	cmp	r5, r3
  305c60:	8afffff9 	bhi	305c4c <_vfprintf_r+0x1694>
  305c64:	e59d203c 	ldr	r2, [sp, #60]	; 0x3c
  305c68:	e3520047 	cmp	r2, #71	; 0x47
  305c6c:	e59d2044 	ldr	r2, [sp, #68]	; 0x44
  305c70:	e0623003 	rsb	r3, r2, r3
  305c74:	e58d3048 	str	r3, [sp, #72]	; 0x48
  305c78:	e59d307c 	ldr	r3, [sp, #124]	; 0x7c
  305c7c:	1a00014b 	bne	3061b0 <_vfprintf_r+0x1bf8>
  305c80:	e3730003 	cmn	r3, #3
  305c84:	a15b0003 	cmpge	fp, r3
  305c88:	b2477002 	sublt	r7, r7, #2
  305c8c:	ba000176 	blt	30626c <_vfprintf_r+0x1cb4>
  305c90:	e3a07067 	mov	r7, #103	; 0x67
  305c94:	e58d302c 	str	r3, [sp, #44]	; 0x2c
  305c98:	e59d3048 	ldr	r3, [sp, #72]	; 0x48
  305c9c:	e59d202c 	ldr	r2, [sp, #44]	; 0x2c
  305ca0:	e1530002 	cmp	r3, r2
  305ca4:	ca000137 	bgt	306188 <_vfprintf_r+0x1bd0>
  305ca8:	e3140001 	tst	r4, #1
  305cac:	01a03002 	moveq	r3, r2
  305cb0:	0a00013b 	beq	3061a4 <_vfprintf_r+0x1bec>
  305cb4:	e59d302c 	ldr	r3, [sp, #44]	; 0x2c
  305cb8:	e2833001 	add	r3, r3, #1
  305cbc:	e58d302c 	str	r3, [sp, #44]	; 0x2c
  305cc0:	e1c33fc3 	bic	r3, r3, r3, asr #31
  305cc4:	e58d3024 	str	r3, [sp, #36]	; 0x24
  305cc8:	e59d3040 	ldr	r3, [sp, #64]	; 0x40
  305ccc:	e3530000 	cmp	r3, #0
  305cd0:	0a00012a 	beq	306180 <_vfprintf_r+0x1bc8>
  305cd4:	e3a0302d 	mov	r3, #45	; 0x2d
  305cd8:	e5cd3077 	strb	r3, [sp, #119]	; 0x77
  305cdc:	e3a03000 	mov	r3, #0
  305ce0:	e58d3040 	str	r3, [sp, #64]	; 0x40
  305ce4:	eafffb73 	b	304ab8 <_vfprintf_r+0x500>
  305ce8:	e3c55007 	bic	r5, r5, #7
  305cec:	e5953000 	ldr	r3, [r5]
  305cf0:	e58d304c 	str	r3, [sp, #76]	; 0x4c
  305cf4:	e5953004 	ldr	r3, [r5, #4]
  305cf8:	e58d3050 	str	r3, [sp, #80]	; 0x50
  305cfc:	e2853008 	add	r3, r5, #8
  305d00:	e58d3038 	str	r3, [sp, #56]	; 0x38
  305d04:	eafffd4e 	b	305244 <_vfprintf_r+0xc8c>
  305d08:	e59d3098 	ldr	r3, [sp, #152]	; 0x98
  305d0c:	e51fb1f8 	ldr	fp, [pc, #-504]	; 305b1c <_vfprintf_r+0x1564>
  305d10:	e2833001 	add	r3, r3, #1
  305d14:	e3530007 	cmp	r3, #7
  305d18:	e0855004 	add	r5, r5, r4
  305d1c:	e589b000 	str	fp, [r9]
  305d20:	e5894004 	str	r4, [r9, #4]
  305d24:	e58d3098 	str	r3, [sp, #152]	; 0x98
  305d28:	e58d509c 	str	r5, [sp, #156]	; 0x9c
  305d2c:	d2899008 	addle	r9, r9, #8
  305d30:	da000007 	ble	305d54 <_vfprintf_r+0x179c>
  305d34:	e28d2094 	add	r2, sp, #148	; 0x94
  305d38:	e59d001c 	ldr	r0, [sp, #28]
  305d3c:	e1a01008 	mov	r1, r8
  305d40:	eb001100 	bl	30a148 <__sprint_r>
  305d44:	e3500000 	cmp	r0, #0
  305d48:	1afffafd 	bne	304944 <_vfprintf_r+0x38c>
  305d4c:	e59d509c 	ldr	r5, [sp, #156]	; 0x9c
  305d50:	e28d9f42 	add	r9, sp, #264	; 0x108
  305d54:	e59d3020 	ldr	r3, [sp, #32]
  305d58:	e3130001 	tst	r3, #1
  305d5c:	0afffc0b 	beq	304d90 <_vfprintf_r+0x7d8>
  305d60:	e59d3098 	ldr	r3, [sp, #152]	; 0x98
  305d64:	e59d205c 	ldr	r2, [sp, #92]	; 0x5c
  305d68:	e2833001 	add	r3, r3, #1
  305d6c:	e59d1058 	ldr	r1, [sp, #88]	; 0x58
  305d70:	e0855002 	add	r5, r5, r2
  305d74:	e3530007 	cmp	r3, #7
  305d78:	e58d509c 	str	r5, [sp, #156]	; 0x9c
  305d7c:	e8890006 	stm	r9, {r1, r2}
  305d80:	e58d3098 	str	r3, [sp, #152]	; 0x98
  305d84:	dafffc00 	ble	304d8c <_vfprintf_r+0x7d4>
  305d88:	eafffe76 	b	305768 <_vfprintf_r+0x11b0>
  305d8c:	e28d2094 	add	r2, sp, #148	; 0x94
  305d90:	e59d001c 	ldr	r0, [sp, #28]
  305d94:	e1a01008 	mov	r1, r8
  305d98:	eb0010ea 	bl	30a148 <__sprint_r>
  305d9c:	e3500000 	cmp	r0, #0
  305da0:	1afffae7 	bne	304944 <_vfprintf_r+0x38c>
  305da4:	e28d9f42 	add	r9, sp, #264	; 0x108
  305da8:	e59d509c 	ldr	r5, [sp, #156]	; 0x9c
  305dac:	eafffd8c 	b	3053e4 <_vfprintf_r+0xe2c>
  305db0:	e3a01001 	mov	r1, #1
  305db4:	e51f22a4 	ldr	r2, [pc, #-676]	; 305b18 <_vfprintf_r+0x1560>
  305db8:	e0844001 	add	r4, r4, r1
  305dbc:	e3540007 	cmp	r4, #7
  305dc0:	e0855001 	add	r5, r5, r1
  305dc4:	e5891004 	str	r1, [r9, #4]
  305dc8:	e5892000 	str	r2, [r9]
  305dcc:	e58d4098 	str	r4, [sp, #152]	; 0x98
  305dd0:	e58d509c 	str	r5, [sp, #156]	; 0x9c
  305dd4:	d2899008 	addle	r9, r9, #8
  305dd8:	ca00004a 	bgt	305f08 <_vfprintf_r+0x1950>
  305ddc:	e59d2048 	ldr	r2, [sp, #72]	; 0x48
  305de0:	e1932002 	orrs	r2, r3, r2
  305de4:	0a000043 	beq	305ef8 <_vfprintf_r+0x1940>
  305de8:	e59d2098 	ldr	r2, [sp, #152]	; 0x98
  305dec:	e59d105c 	ldr	r1, [sp, #92]	; 0x5c
  305df0:	e2822001 	add	r2, r2, #1
  305df4:	e59d0058 	ldr	r0, [sp, #88]	; 0x58
  305df8:	e0855001 	add	r5, r5, r1
  305dfc:	e3520007 	cmp	r2, #7
  305e00:	e8890003 	stm	r9, {r0, r1}
  305e04:	e58d509c 	str	r5, [sp, #156]	; 0x9c
  305e08:	e58d2098 	str	r2, [sp, #152]	; 0x98
  305e0c:	d2899008 	addle	r9, r9, #8
  305e10:	ca000046 	bgt	305f30 <_vfprintf_r+0x1978>
  305e14:	e2634000 	rsb	r4, r3, #0
  305e18:	e3540000 	cmp	r4, #0
  305e1c:	da00008c 	ble	306054 <_vfprintf_r+0x1a9c>
  305e20:	e3540010 	cmp	r4, #16
  305e24:	d51fb310 	ldrle	fp, [pc, #-784]	; 305b1c <_vfprintf_r+0x1564>
  305e28:	da000077 	ble	30600c <_vfprintf_r+0x1a54>
  305e2c:	e3a06010 	mov	r6, #16
  305e30:	e51fb31c 	ldr	fp, [pc, #-796]	; 305b1c <_vfprintf_r+0x1564>
  305e34:	e28d7094 	add	r7, sp, #148	; 0x94
  305e38:	e59da01c 	ldr	sl, [sp, #28]
  305e3c:	ea000002 	b	305e4c <_vfprintf_r+0x1894>
  305e40:	e2444010 	sub	r4, r4, #16
  305e44:	e3540010 	cmp	r4, #16
  305e48:	da00006f 	ble	30600c <_vfprintf_r+0x1a54>
  305e4c:	e2822001 	add	r2, r2, #1
  305e50:	e3520007 	cmp	r2, #7
  305e54:	e2855010 	add	r5, r5, #16
  305e58:	e589b000 	str	fp, [r9]
  305e5c:	e5896004 	str	r6, [r9, #4]
  305e60:	e58d2098 	str	r2, [sp, #152]	; 0x98
  305e64:	e58d509c 	str	r5, [sp, #156]	; 0x9c
  305e68:	d2899008 	addle	r9, r9, #8
  305e6c:	dafffff3 	ble	305e40 <_vfprintf_r+0x1888>
  305e70:	e1a0000a 	mov	r0, sl
  305e74:	e1a01008 	mov	r1, r8
  305e78:	e1a02007 	mov	r2, r7
  305e7c:	eb0010b1 	bl	30a148 <__sprint_r>
  305e80:	e3500000 	cmp	r0, #0
  305e84:	1afffaae 	bne	304944 <_vfprintf_r+0x38c>
  305e88:	e28d2098 	add	r2, sp, #152	; 0x98
  305e8c:	e28d9f42 	add	r9, sp, #264	; 0x108
  305e90:	e8920024 	ldm	r2, {r2, r5}
  305e94:	eaffffe9 	b	305e40 <_vfprintf_r+0x1888>
  305e98:	e59d309c 	ldr	r3, [sp, #156]	; 0x9c
  305e9c:	e3530000 	cmp	r3, #0
  305ea0:	e59da01c 	ldr	sl, [sp, #28]
  305ea4:	e1a0b008 	mov	fp, r8
  305ea8:	0afffaa6 	beq	304948 <_vfprintf_r+0x390>
  305eac:	e1a0000a 	mov	r0, sl
  305eb0:	e28d2094 	add	r2, sp, #148	; 0x94
  305eb4:	e1a01008 	mov	r1, r8
  305eb8:	eb0010a2 	bl	30a148 <__sprint_r>
  305ebc:	eafffaa1 	b	304948 <_vfprintf_r+0x390>
  305ec0:	e3a03003 	mov	r3, #3
  305ec4:	e1a01003 	mov	r1, r3
  305ec8:	e58d3024 	str	r3, [sp, #36]	; 0x24
  305ecc:	e51f33b4 	ldr	r3, [pc, #-948]	; 305b20 <_vfprintf_r+0x1568>
  305ed0:	e3570047 	cmp	r7, #71	; 0x47
  305ed4:	e51f23b8 	ldr	r2, [pc, #-952]	; 305b24 <_vfprintf_r+0x156c>
  305ed8:	d1a02003 	movle	r2, r3
  305edc:	e3c4c080 	bic	ip, r4, #128	; 0x80
  305ee0:	e58d0040 	str	r0, [sp, #64]	; 0x40
  305ee4:	e58dc020 	str	ip, [sp, #32]
  305ee8:	e58d102c 	str	r1, [sp, #44]	; 0x2c
  305eec:	e58d2044 	str	r2, [sp, #68]	; 0x44
  305ef0:	e5dd0077 	ldrb	r0, [sp, #119]	; 0x77
  305ef4:	eafffaed 	b	304ab0 <_vfprintf_r+0x4f8>
  305ef8:	e59d2020 	ldr	r2, [sp, #32]
  305efc:	e3120001 	tst	r2, #1
  305f00:	0afffba2 	beq	304d90 <_vfprintf_r+0x7d8>
  305f04:	eaffffb7 	b	305de8 <_vfprintf_r+0x1830>
  305f08:	e28d2094 	add	r2, sp, #148	; 0x94
  305f0c:	e59d001c 	ldr	r0, [sp, #28]
  305f10:	e1a01008 	mov	r1, r8
  305f14:	eb00108b 	bl	30a148 <__sprint_r>
  305f18:	e3500000 	cmp	r0, #0
  305f1c:	1afffa88 	bne	304944 <_vfprintf_r+0x38c>
  305f20:	e28d9f42 	add	r9, sp, #264	; 0x108
  305f24:	e59d307c 	ldr	r3, [sp, #124]	; 0x7c
  305f28:	e59d509c 	ldr	r5, [sp, #156]	; 0x9c
  305f2c:	eaffffaa 	b	305ddc <_vfprintf_r+0x1824>
  305f30:	e28d2094 	add	r2, sp, #148	; 0x94
  305f34:	e59d001c 	ldr	r0, [sp, #28]
  305f38:	e1a01008 	mov	r1, r8
  305f3c:	eb001081 	bl	30a148 <__sprint_r>
  305f40:	e3500000 	cmp	r0, #0
  305f44:	1afffa7e 	bne	304944 <_vfprintf_r+0x38c>
  305f48:	e28d2098 	add	r2, sp, #152	; 0x98
  305f4c:	e28d9f42 	add	r9, sp, #264	; 0x108
  305f50:	e59d307c 	ldr	r3, [sp, #124]	; 0x7c
  305f54:	e8920024 	ldm	r2, {r2, r5}
  305f58:	eaffffad 	b	305e14 <_vfprintf_r+0x185c>
  305f5c:	e59d3050 	ldr	r3, [sp, #80]	; 0x50
  305f60:	e3842c01 	orr	r2, r4, #256	; 0x100
  305f64:	e3530000 	cmp	r3, #0
  305f68:	e58d2020 	str	r2, [sp, #32]
  305f6c:	ba0000f1 	blt	306338 <_vfprintf_r+0x1d80>
  305f70:	e58d302c 	str	r3, [sp, #44]	; 0x2c
  305f74:	e59d304c 	ldr	r3, [sp, #76]	; 0x4c
  305f78:	e58d3024 	str	r3, [sp, #36]	; 0x24
  305f7c:	e3a03000 	mov	r3, #0
  305f80:	e58d3040 	str	r3, [sp, #64]	; 0x40
  305f84:	e59d303c 	ldr	r3, [sp, #60]	; 0x3c
  305f88:	e3530046 	cmp	r3, #70	; 0x46
  305f8c:	0a00004b 	beq	3060c0 <_vfprintf_r+0x1b08>
  305f90:	e3530045 	cmp	r3, #69	; 0x45
  305f94:	1affff09 	bne	305bc0 <_vfprintf_r+0x1608>
  305f98:	e3a0e002 	mov	lr, #2
  305f9c:	e28da088 	add	sl, sp, #136	; 0x88
  305fa0:	e24a000c 	sub	r0, sl, #12
  305fa4:	e28d6098 	add	r6, sp, #152	; 0x98
  305fa8:	e24a1008 	sub	r1, sl, #8
  305fac:	e58d0008 	str	r0, [sp, #8]
  305fb0:	e28b5001 	add	r5, fp, #1
  305fb4:	e246000c 	sub	r0, r6, #12
  305fb8:	e58d0010 	str	r0, [sp, #16]
  305fbc:	e59d2024 	ldr	r2, [sp, #36]	; 0x24
  305fc0:	e59d302c 	ldr	r3, [sp, #44]	; 0x2c
  305fc4:	e58d100c 	str	r1, [sp, #12]
  305fc8:	e58de000 	str	lr, [sp]
  305fcc:	e58d5004 	str	r5, [sp, #4]
  305fd0:	e59d001c 	ldr	r0, [sp, #28]
  305fd4:	eb000229 	bl	306880 <_dtoa_r>
  305fd8:	e58d0044 	str	r0, [sp, #68]	; 0x44
  305fdc:	e59d3044 	ldr	r3, [sp, #68]	; 0x44
  305fe0:	e0835005 	add	r5, r3, r5
  305fe4:	eaffff0c 	b	305c1c <_vfprintf_r+0x1664>
  305fe8:	e28d2094 	add	r2, sp, #148	; 0x94
  305fec:	e59d001c 	ldr	r0, [sp, #28]
  305ff0:	e1a01008 	mov	r1, r8
  305ff4:	eb001053 	bl	30a148 <__sprint_r>
  305ff8:	e3500000 	cmp	r0, #0
  305ffc:	1afffa50 	bne	304944 <_vfprintf_r+0x38c>
  306000:	e28d9f42 	add	r9, sp, #264	; 0x108
  306004:	e59d509c 	ldr	r5, [sp, #156]	; 0x9c
  306008:	eafffd07 	b	30542c <_vfprintf_r+0xe74>
  30600c:	e2822001 	add	r2, r2, #1
  306010:	e3520007 	cmp	r2, #7
  306014:	e0855004 	add	r5, r5, r4
  306018:	e589b000 	str	fp, [r9]
  30601c:	e5894004 	str	r4, [r9, #4]
  306020:	e58d2098 	str	r2, [sp, #152]	; 0x98
  306024:	e58d509c 	str	r5, [sp, #156]	; 0x9c
  306028:	d2899008 	addle	r9, r9, #8
  30602c:	da000008 	ble	306054 <_vfprintf_r+0x1a9c>
  306030:	e28d2094 	add	r2, sp, #148	; 0x94
  306034:	e59d001c 	ldr	r0, [sp, #28]
  306038:	e1a01008 	mov	r1, r8
  30603c:	eb001041 	bl	30a148 <__sprint_r>
  306040:	e3500000 	cmp	r0, #0
  306044:	1afffa3e 	bne	304944 <_vfprintf_r+0x38c>
  306048:	e28d2098 	add	r2, sp, #152	; 0x98
  30604c:	e8920024 	ldm	r2, {r2, r5}
  306050:	e28d9f42 	add	r9, sp, #264	; 0x108
  306054:	e59d3048 	ldr	r3, [sp, #72]	; 0x48
  306058:	e2822001 	add	r2, r2, #1
  30605c:	e3520007 	cmp	r2, #7
  306060:	e0835005 	add	r5, r3, r5
  306064:	e58d2098 	str	r2, [sp, #152]	; 0x98
  306068:	eafffb43 	b	304d7c <_vfprintf_r+0x7c4>
  30606c:	eb000ff2 	bl	30a03c <strlen>
  306070:	e1a03000 	mov	r3, r0
  306074:	eafffa86 	b	304a94 <_vfprintf_r+0x4dc>
  306078:	e59d109c 	ldr	r1, [sp, #156]	; 0x9c
  30607c:	e59d2098 	ldr	r2, [sp, #152]	; 0x98
  306080:	e51fa560 	ldr	sl, [pc, #-1376]	; 305b28 <_vfprintf_r+0x1570>
  306084:	eafffac6 	b	304ba4 <_vfprintf_r+0x5ec>
  306088:	e59d2098 	ldr	r2, [sp, #152]	; 0x98
  30608c:	e51fa56c 	ldr	sl, [pc, #-1388]	; 305b28 <_vfprintf_r+0x1570>
  306090:	eafffb68 	b	304e38 <_vfprintf_r+0x880>
  306094:	e35a0006 	cmp	sl, #6
  306098:	e1a0300a 	mov	r3, sl
  30609c:	23a03006 	movcs	r3, #6
  3060a0:	e58d302c 	str	r3, [sp, #44]	; 0x2c
  3060a4:	e1c33fc3 	bic	r3, r3, r3, asr #31
  3060a8:	e58d3024 	str	r3, [sp, #36]	; 0x24
  3060ac:	e51f3588 	ldr	r3, [pc, #-1416]	; 305b2c <_vfprintf_r+0x1574>
  3060b0:	e58d4020 	str	r4, [sp, #32]
  3060b4:	e58d5038 	str	r5, [sp, #56]	; 0x38
  3060b8:	e58d3044 	str	r3, [sp, #68]	; 0x44
  3060bc:	eafffc02 	b	3050cc <_vfprintf_r+0xb14>
  3060c0:	e3a05003 	mov	r5, #3
  3060c4:	e28da088 	add	sl, sp, #136	; 0x88
  3060c8:	e28d6098 	add	r6, sp, #152	; 0x98
  3060cc:	e24ae00c 	sub	lr, sl, #12
  3060d0:	e246100c 	sub	r1, r6, #12
  3060d4:	e24a0008 	sub	r0, sl, #8
  3060d8:	e59d2024 	ldr	r2, [sp, #36]	; 0x24
  3060dc:	e59d302c 	ldr	r3, [sp, #44]	; 0x2c
  3060e0:	e98d4800 	stmib	sp, {fp, lr}
  3060e4:	e58d000c 	str	r0, [sp, #12]
  3060e8:	e58d1010 	str	r1, [sp, #16]
  3060ec:	e58d5000 	str	r5, [sp]
  3060f0:	e59d001c 	ldr	r0, [sp, #28]
  3060f4:	eb0001e1 	bl	306880 <_dtoa_r>
  3060f8:	e1a05000 	mov	r5, r0
  3060fc:	e5d5c000 	ldrb	ip, [r5]
  306100:	e24ce030 	sub	lr, ip, #48	; 0x30
  306104:	e27ec000 	rsbs	ip, lr, #0
  306108:	e0acc00e 	adc	ip, ip, lr
  30610c:	e58d0044 	str	r0, [sp, #68]	; 0x44
  306110:	e3a03000 	mov	r3, #0
  306114:	e59d0024 	ldr	r0, [sp, #36]	; 0x24
  306118:	e59d102c 	ldr	r1, [sp, #44]	; 0x2c
  30611c:	e3a02000 	mov	r2, #0
  306120:	e58dc048 	str	ip, [sp, #72]	; 0x48
  306124:	eb001c84 	bl	30d33c <__aeabi_dcmpeq>
  306128:	e3500000 	cmp	r0, #0
  30612c:	e085500b 	add	r5, r5, fp
  306130:	e3a03001 	mov	r3, #1
  306134:	e59dc048 	ldr	ip, [sp, #72]	; 0x48
  306138:	13a03000 	movne	r3, #0
  30613c:	e11c0003 	tst	ip, r3
  306140:	059d307c 	ldreq	r3, [sp, #124]	; 0x7c
  306144:	126b3001 	rsbne	r3, fp, #1
  306148:	158d307c 	strne	r3, [sp, #124]	; 0x7c
  30614c:	e0855003 	add	r5, r5, r3
  306150:	eafffeb1 	b	305c1c <_vfprintf_r+0x1664>
  306154:	e28d2094 	add	r2, sp, #148	; 0x94
  306158:	e59d001c 	ldr	r0, [sp, #28]
  30615c:	e1a01008 	mov	r1, r8
  306160:	eb000ff8 	bl	30a148 <__sprint_r>
  306164:	e3500000 	cmp	r0, #0
  306168:	1afff9f5 	bne	304944 <_vfprintf_r+0x38c>
  30616c:	e28d2098 	add	r2, sp, #152	; 0x98
  306170:	e28d9f42 	add	r9, sp, #264	; 0x108
  306174:	e59d307c 	ldr	r3, [sp, #124]	; 0x7c
  306178:	e8920024 	ldm	r2, {r2, r5}
  30617c:	eafffd6f 	b	305740 <_vfprintf_r+0x1188>
  306180:	e5dd0077 	ldrb	r0, [sp, #119]	; 0x77
  306184:	eafffa49 	b	304ab0 <_vfprintf_r+0x4f8>
  306188:	e59d302c 	ldr	r3, [sp, #44]	; 0x2c
  30618c:	e3530000 	cmp	r3, #0
  306190:	c3a03001 	movgt	r3, #1
  306194:	e59d2048 	ldr	r2, [sp, #72]	; 0x48
  306198:	d2633002 	rsble	r3, r3, #2
  30619c:	e0833002 	add	r3, r3, r2
  3061a0:	e58d302c 	str	r3, [sp, #44]	; 0x2c
  3061a4:	e1c33fc3 	bic	r3, r3, r3, asr #31
  3061a8:	e58d3024 	str	r3, [sp, #36]	; 0x24
  3061ac:	eafffec5 	b	305cc8 <_vfprintf_r+0x1710>
  3061b0:	e3570065 	cmp	r7, #101	; 0x65
  3061b4:	da00002c 	ble	30626c <_vfprintf_r+0x1cb4>
  3061b8:	e3570066 	cmp	r7, #102	; 0x66
  3061bc:	e58d302c 	str	r3, [sp, #44]	; 0x2c
  3061c0:	1afffeb4 	bne	305c98 <_vfprintf_r+0x16e0>
  3061c4:	e3530000 	cmp	r3, #0
  3061c8:	da000072 	ble	306398 <_vfprintf_r+0x1de0>
  3061cc:	e35b0000 	cmp	fp, #0
  3061d0:	1a000001 	bne	3061dc <_vfprintf_r+0x1c24>
  3061d4:	e3140001 	tst	r4, #1
  3061d8:	0afffff1 	beq	3061a4 <_vfprintf_r+0x1bec>
  3061dc:	e59d302c 	ldr	r3, [sp, #44]	; 0x2c
  3061e0:	e28bb001 	add	fp, fp, #1
  3061e4:	e083300b 	add	r3, r3, fp
  3061e8:	e58d302c 	str	r3, [sp, #44]	; 0x2c
  3061ec:	e1c33fc3 	bic	r3, r3, r3, asr #31
  3061f0:	e58d3024 	str	r3, [sp, #36]	; 0x24
  3061f4:	eafffeb3 	b	305cc8 <_vfprintf_r+0x1710>
  3061f8:	e28d2094 	add	r2, sp, #148	; 0x94
  3061fc:	e59d001c 	ldr	r0, [sp, #28]
  306200:	e1a01008 	mov	r1, r8
