
oled_screen_test/kernel.elf:     file format elf32-littlearm


Disassembly of section .text:

00008000 <__start>:
    8000:	e10f0000 	mrs	r0, CPSR
    8004:	e321f0d2 	msr	CPSR_c, #210	; 0xd2
    8008:	e59fd034 	ldr	sp, [pc, #52]	; 8044 <hang+0x8>
    800c:	e121f000 	msr	CPSR_c, r0
    8010:	e59fd030 	ldr	sp, [pc, #48]	; 8048 <hang+0xc>
    8014:	e59f0030 	ldr	r0, [pc, #48]	; 804c <hang+0x10>
    8018:	e59f1030 	ldr	r1, [pc, #48]	; 8050 <hang+0x14>
    801c:	e3a02000 	mov	r2, #0
    8020:	e3a03000 	mov	r3, #0
    8024:	e3a04000 	mov	r4, #0
    8028:	e3a05000 	mov	r5, #0

0000802c <bss_loop>:
    802c:	e8a0003c 	stmia	r0!, {r2, r3, r4, r5}
    8030:	e1500001 	cmp	r0, r1
    8034:	3afffffc 	bcc	802c <bss_loop>
    8038:	eb00005d 	bl	81b4 <kernel_main>

0000803c <hang>:
    803c:	e320f003 	wfi
    8040:	eafffffd 	b	803c <hang>
    8044:	0012d000 	andseq	sp, r2, r0
    8048:	0011c000 	andseq	ip, r1, r0
    804c:	0000b000 	andeq	fp, r0, r0
    8050:	0000c000 	andeq	ip, r0, r0

00008054 <gpio_config>:
    8054:	e3510007 	cmp	r1, #7
    8058:	93500035 	cmpls	r0, #53	; 0x35
    805c:	812fff1e 	bxhi	lr
    8060:	e30c2ccd 	movw	r2, #52429	; 0xcccd
    8064:	e34c2ccc 	movt	r2, #52428	; 0xcccc
    8068:	e0832290 	umull	r2, r3, r0, r2
    806c:	e1a0c1a3 	lsr	ip, r3, #3
    8070:	e6ef307c 	uxtb	r3, ip
    8074:	e1a03103 	lsl	r3, r3, #2
    8078:	e283343f 	add	r3, r3, #1056964608	; 0x3f000000
    807c:	e2833602 	add	r3, r3, #2097152	; 0x200000
    8080:	e5932000 	ldr	r2, [r3]
    8084:	e08cc10c 	add	ip, ip, ip, lsl #2
    8088:	e040008c 	sub	r0, r0, ip, lsl #1
    808c:	e6ef0070 	uxtb	r0, r0
    8090:	e0800080 	add	r0, r0, r0, lsl #1
    8094:	e3a0c007 	mov	ip, #7
    8098:	e1c2201c 	bic	r2, r2, ip, lsl r0
    809c:	e1820011 	orr	r0, r2, r1, lsl r0
    80a0:	e5830000 	str	r0, [r3]
    80a4:	e12fff1e 	bx	lr

000080a8 <gpio_set>:
    80a8:	e3500035 	cmp	r0, #53	; 0x35
    80ac:	812fff1e 	bxhi	lr
    80b0:	e350001f 	cmp	r0, #31
    80b4:	9a000006 	bls	80d4 <gpio_set+0x2c>
    80b8:	e2400020 	sub	r0, r0, #32
    80bc:	e3a03001 	mov	r3, #1
    80c0:	e1a00013 	lsl	r0, r3, r0
    80c4:	e3a03000 	mov	r3, #0
    80c8:	e3433f20 	movt	r3, #16160	; 0x3f20
    80cc:	e5830020 	str	r0, [r3, #32]
    80d0:	e12fff1e 	bx	lr
    80d4:	e3a03001 	mov	r3, #1
    80d8:	e1a00013 	lsl	r0, r3, r0
    80dc:	e3a03000 	mov	r3, #0
    80e0:	e3433f20 	movt	r3, #16160	; 0x3f20
    80e4:	e583001c 	str	r0, [r3, #28]
    80e8:	e12fff1e 	bx	lr

000080ec <gpio_clr>:
    80ec:	e3500035 	cmp	r0, #53	; 0x35
    80f0:	812fff1e 	bxhi	lr
    80f4:	e350001f 	cmp	r0, #31
    80f8:	9a000006 	bls	8118 <gpio_clr+0x2c>
    80fc:	e2400020 	sub	r0, r0, #32
    8100:	e3a03001 	mov	r3, #1
    8104:	e1a00013 	lsl	r0, r3, r0
    8108:	e3a03000 	mov	r3, #0
    810c:	e3433f20 	movt	r3, #16160	; 0x3f20
    8110:	e583002c 	str	r0, [r3, #44]	; 0x2c
    8114:	e12fff1e 	bx	lr
    8118:	e3a03001 	mov	r3, #1
    811c:	e1a00013 	lsl	r0, r3, r0
    8120:	e3a03000 	mov	r3, #0
    8124:	e3433f20 	movt	r3, #16160	; 0x3f20
    8128:	e5830028 	str	r0, [r3, #40]	; 0x28
    812c:	e12fff1e 	bx	lr

00008130 <gpio_set_pull>:
    8130:	e3510002 	cmp	r1, #2
    8134:	93500035 	cmpls	r0, #53	; 0x35
    8138:	812fff1e 	bxhi	lr
    813c:	e92d4038 	push	{r3, r4, r5, lr}
    8140:	e1a04000 	mov	r4, r0
    8144:	e3a03000 	mov	r3, #0
    8148:	e3433f20 	movt	r3, #16160	; 0x3f20
    814c:	e5831094 	str	r1, [r3, #148]	; 0x94
    8150:	e3a00096 	mov	r0, #150	; 0x96
    8154:	eb00023d 	bl	8a50 <delay_cycles>
    8158:	e354001f 	cmp	r4, #31
    815c:	9a00000a 	bls	818c <gpio_set_pull+0x5c>
    8160:	e2440020 	sub	r0, r4, #32
    8164:	e3a04001 	mov	r4, #1
    8168:	e1a00014 	lsl	r0, r4, r0
    816c:	e3a05000 	mov	r5, #0
    8170:	e3435f20 	movt	r5, #16160	; 0x3f20
    8174:	e585009c 	str	r0, [r5, #156]	; 0x9c
    8178:	e3a00096 	mov	r0, #150	; 0x96
    817c:	eb000233 	bl	8a50 <delay_cycles>
    8180:	e3a03000 	mov	r3, #0
    8184:	e585309c 	str	r3, [r5, #156]	; 0x9c
    8188:	e8bd8038 	pop	{r3, r4, r5, pc}
    818c:	e3a00001 	mov	r0, #1
    8190:	e1a00410 	lsl	r0, r0, r4
    8194:	e3a05000 	mov	r5, #0
    8198:	e3435f20 	movt	r5, #16160	; 0x3f20
    819c:	e5850098 	str	r0, [r5, #152]	; 0x98
    81a0:	e3a00096 	mov	r0, #150	; 0x96
    81a4:	eb000229 	bl	8a50 <delay_cycles>
    81a8:	e3a03000 	mov	r3, #0
    81ac:	e5853098 	str	r3, [r5, #152]	; 0x98
    81b0:	e8bd8038 	pop	{r3, r4, r5, pc}

000081b4 <kernel_main>:
    81b4:	e92d43f8 	push	{r3, r4, r5, r6, r7, r8, r9, lr}
    81b8:	eb00019a 	bl	8828 <oled_init>
    81bc:	eb000166 	bl	875c <oled_buf_clr>
    81c0:	e3a04000 	mov	r4, #0
    81c4:	e1a05004 	mov	r5, r4
    81c8:	e1a08004 	mov	r8, r4
    81cc:	e1a09004 	mov	r9, r4
    81d0:	ea000001 	b	81dc <kernel_main+0x28>
    81d4:	e1a04008 	mov	r4, r8
    81d8:	e1a05006 	mov	r5, r6
    81dc:	e355001f 	cmp	r5, #31
    81e0:	c1a04008 	movgt	r4, r8
    81e4:	c1a05009 	movgt	r5, r9
    81e8:	e1a07004 	mov	r7, r4
    81ec:	e1a00005 	mov	r0, r5
    81f0:	e1a01004 	mov	r1, r4
    81f4:	eb000136 	bl	86d4 <oled_buf_pixel_set>
    81f8:	e2844001 	add	r4, r4, #1
    81fc:	e1a00005 	mov	r0, r5
    8200:	e1a01004 	mov	r1, r4
    8204:	eb000132 	bl	86d4 <oled_buf_pixel_set>
    8208:	e2856001 	add	r6, r5, #1
    820c:	e1a00006 	mov	r0, r6
    8210:	e1a01007 	mov	r1, r7
    8214:	eb00012e 	bl	86d4 <oled_buf_pixel_set>
    8218:	e1a00006 	mov	r0, r6
    821c:	e1a01004 	mov	r1, r4
    8220:	eb00012b 	bl	86d4 <oled_buf_pixel_set>
    8224:	eb0001d1 	bl	8970 <oled_buf_draw>
    8228:	e1a00005 	mov	r0, r5
    822c:	e1a01007 	mov	r1, r7
    8230:	eb000138 	bl	8718 <oled_buf_pixel_clr>
    8234:	e1a00005 	mov	r0, r5
    8238:	e1a01004 	mov	r1, r4
    823c:	eb000135 	bl	8718 <oled_buf_pixel_clr>
    8240:	e1a00006 	mov	r0, r6
    8244:	e1a01007 	mov	r1, r7
    8248:	eb000132 	bl	8718 <oled_buf_pixel_clr>
    824c:	e1a00006 	mov	r0, r6
    8250:	e1a01004 	mov	r1, r4
    8254:	eb00012f 	bl	8718 <oled_buf_pixel_clr>
    8258:	e354007f 	cmp	r4, #127	; 0x7f
    825c:	d1a06005 	movle	r6, r5
    8260:	daffffdc 	ble	81d8 <kernel_main+0x24>
    8264:	eaffffda 	b	81d4 <kernel_main+0x20>

00008268 <printnumk>:
    8268:	e92d47f0 	push	{r4, r5, r6, r7, r8, r9, sl, lr}
    826c:	e24dd008 	sub	sp, sp, #8
    8270:	e1a06002 	mov	r6, r2
    8274:	e1a07003 	mov	r7, r3
    8278:	e3500008 	cmp	r0, #8
    827c:	0a000004 	beq	8294 <printnumk+0x2c>
    8280:	e3098018 	movw	r8, #36888	; 0x9018
    8284:	e3408000 	movt	r8, #0
    8288:	e3500010 	cmp	r0, #16
    828c:	13a08000 	movne	r8, #0
    8290:	ea000001 	b	829c <printnumk+0x34>
    8294:	e3098014 	movw	r8, #36884	; 0x9014
    8298:	e3408000 	movt	r8, #0
    829c:	e28d4007 	add	r4, sp, #7
    82a0:	e1a05000 	mov	r5, r0
    82a4:	e3a09000 	mov	r9, #0
    82a8:	e309a000 	movw	sl, #36864	; 0x9000
    82ac:	e340a000 	movt	sl, #0
    82b0:	e1a00006 	mov	r0, r6
    82b4:	e1a01007 	mov	r1, r7
    82b8:	e1a02005 	mov	r2, r5
    82bc:	e1a03009 	mov	r3, r9
    82c0:	eb0001f3 	bl	8a94 <__aeabi_uldivmod>
    82c4:	e7da3002 	ldrb	r3, [sl, r2]
    82c8:	e4443001 	strb	r3, [r4], #-1
    82cc:	e1a00006 	mov	r0, r6
    82d0:	e1a01007 	mov	r1, r7
    82d4:	e1a02005 	mov	r2, r5
    82d8:	e1a03009 	mov	r3, r9
    82dc:	eb0001ec 	bl	8a94 <__aeabi_uldivmod>
    82e0:	e1a06000 	mov	r6, r0
    82e4:	e1a07001 	mov	r7, r1
    82e8:	e1963007 	orrs	r3, r6, r7
    82ec:	1affffef 	bne	82b0 <printnumk+0x48>
    82f0:	e3580000 	cmp	r8, #0
    82f4:	0a000002 	beq	8304 <printnumk+0x9c>
    82f8:	e5d80000 	ldrb	r0, [r8]
    82fc:	e3500000 	cmp	r0, #0
    8300:	1a000004 	bne	8318 <printnumk+0xb0>
    8304:	e2844001 	add	r4, r4, #1
    8308:	e28d3008 	add	r3, sp, #8
    830c:	e1540003 	cmp	r4, r3
    8310:	1a000005 	bne	832c <printnumk+0xc4>
    8314:	ea000009 	b	8340 <printnumk+0xd8>
    8318:	eb00007a 	bl	8508 <uart_put_byte>
    831c:	e5f80001 	ldrb	r0, [r8, #1]!
    8320:	e3500000 	cmp	r0, #0
    8324:	1afffffb 	bne	8318 <printnumk+0xb0>
    8328:	eafffff5 	b	8304 <printnumk+0x9c>
    832c:	e4d40001 	ldrb	r0, [r4], #1
    8330:	eb000074 	bl	8508 <uart_put_byte>
    8334:	e28d3008 	add	r3, sp, #8
    8338:	e1540003 	cmp	r4, r3
    833c:	1afffffa 	bne	832c <printnumk+0xc4>
    8340:	e28dd008 	add	sp, sp, #8
    8344:	e8bd87f0 	pop	{r4, r5, r6, r7, r8, r9, sl, pc}

00008348 <printk>:
    8348:	e92d000f 	push	{r0, r1, r2, r3}
    834c:	e92d41f0 	push	{r4, r5, r6, r7, r8, lr}
    8350:	e24dd008 	sub	sp, sp, #8
    8354:	e59d4020 	ldr	r4, [sp, #32]
    8358:	e28d3024 	add	r3, sp, #36	; 0x24
    835c:	e58d3004 	str	r3, [sp, #4]
    8360:	e3a06000 	mov	r6, #0
    8364:	e3a08008 	mov	r8, #8
    8368:	e3a07010 	mov	r7, #16
    836c:	ea00005c 	b	84e4 <printk+0x19c>
    8370:	e3500025 	cmp	r0, #37	; 0x25
    8374:	0a000002 	beq	8384 <printk+0x3c>
    8378:	e2844001 	add	r4, r4, #1
    837c:	eb000061 	bl	8508 <uart_put_byte>
    8380:	ea000057 	b	84e4 <printk+0x19c>
    8384:	e5d43001 	ldrb	r3, [r4, #1]
    8388:	e353006f 	cmp	r3, #111	; 0x6f
    838c:	0a00002c 	beq	8444 <printk+0xfc>
    8390:	8a000006 	bhi	83b0 <printk+0x68>
    8394:	e3530063 	cmp	r3, #99	; 0x63
    8398:	0a000045 	beq	84b4 <printk+0x16c>
    839c:	e3530064 	cmp	r3, #100	; 0x64
    83a0:	0a00000d 	beq	83dc <printk+0x94>
    83a4:	e3530025 	cmp	r3, #37	; 0x25
    83a8:	1a00004a 	bne	84d8 <printk+0x190>
    83ac:	ea000046 	b	84cc <printk+0x184>
    83b0:	e3530073 	cmp	r3, #115	; 0x73
    83b4:	0a000032 	beq	8484 <printk+0x13c>
    83b8:	8a000002 	bhi	83c8 <printk+0x80>
    83bc:	e3530070 	cmp	r3, #112	; 0x70
    83c0:	0a000027 	beq	8464 <printk+0x11c>
    83c4:	ea000043 	b	84d8 <printk+0x190>
    83c8:	e3530075 	cmp	r3, #117	; 0x75
    83cc:	0a000014 	beq	8424 <printk+0xdc>
    83d0:	e3530078 	cmp	r3, #120	; 0x78
    83d4:	0a000022 	beq	8464 <printk+0x11c>
    83d8:	ea00003e 	b	84d8 <printk+0x190>
    83dc:	e59d3004 	ldr	r3, [sp, #4]
    83e0:	e2832004 	add	r2, r3, #4
    83e4:	e58d2004 	str	r2, [sp, #4]
    83e8:	e5935000 	ldr	r5, [r3]
    83ec:	e3550000 	cmp	r5, #0
    83f0:	aa000006 	bge	8410 <printk+0xc8>
    83f4:	e3a0002d 	mov	r0, #45	; 0x2d
    83f8:	eb000042 	bl	8508 <uart_put_byte>
    83fc:	e2652000 	rsb	r2, r5, #0
    8400:	e3a0000a 	mov	r0, #10
    8404:	e1a03fc2 	asr	r3, r2, #31
    8408:	ebffff96 	bl	8268 <printnumk>
    840c:	ea000033 	b	84e0 <printk+0x198>
    8410:	e3a0000a 	mov	r0, #10
    8414:	e1a02005 	mov	r2, r5
    8418:	e1a03fc5 	asr	r3, r5, #31
    841c:	ebffff91 	bl	8268 <printnumk>
    8420:	ea00002e 	b	84e0 <printk+0x198>
    8424:	e59d3004 	ldr	r3, [sp, #4]
    8428:	e2832004 	add	r2, r3, #4
    842c:	e58d2004 	str	r2, [sp, #4]
    8430:	e3a0000a 	mov	r0, #10
    8434:	e5932000 	ldr	r2, [r3]
    8438:	e1a03006 	mov	r3, r6
    843c:	ebffff89 	bl	8268 <printnumk>
    8440:	ea000026 	b	84e0 <printk+0x198>
    8444:	e59d3004 	ldr	r3, [sp, #4]
    8448:	e2832004 	add	r2, r3, #4
    844c:	e58d2004 	str	r2, [sp, #4]
    8450:	e1a00008 	mov	r0, r8
    8454:	e5932000 	ldr	r2, [r3]
    8458:	e1a03006 	mov	r3, r6
    845c:	ebffff81 	bl	8268 <printnumk>
    8460:	ea00001e 	b	84e0 <printk+0x198>
    8464:	e59d3004 	ldr	r3, [sp, #4]
    8468:	e2832004 	add	r2, r3, #4
    846c:	e58d2004 	str	r2, [sp, #4]
    8470:	e1a00007 	mov	r0, r7
    8474:	e5932000 	ldr	r2, [r3]
    8478:	e1a03006 	mov	r3, r6
    847c:	ebffff79 	bl	8268 <printnumk>
    8480:	ea000016 	b	84e0 <printk+0x198>
    8484:	e59d3004 	ldr	r3, [sp, #4]
    8488:	e2832004 	add	r2, r3, #4
    848c:	e58d2004 	str	r2, [sp, #4]
    8490:	e5935000 	ldr	r5, [r3]
    8494:	e5d50000 	ldrb	r0, [r5]
    8498:	e3500000 	cmp	r0, #0
    849c:	0a00000f 	beq	84e0 <printk+0x198>
    84a0:	eb000018 	bl	8508 <uart_put_byte>
    84a4:	e5f50001 	ldrb	r0, [r5, #1]!
    84a8:	e3500000 	cmp	r0, #0
    84ac:	1afffffb 	bne	84a0 <printk+0x158>
    84b0:	ea00000a 	b	84e0 <printk+0x198>
    84b4:	e59d3004 	ldr	r3, [sp, #4]
    84b8:	e2832004 	add	r2, r3, #4
    84bc:	e58d2004 	str	r2, [sp, #4]
    84c0:	e5d30000 	ldrb	r0, [r3]
    84c4:	eb00000f 	bl	8508 <uart_put_byte>
    84c8:	ea000004 	b	84e0 <printk+0x198>
    84cc:	e3a00025 	mov	r0, #37	; 0x25
    84d0:	eb00000c 	bl	8508 <uart_put_byte>
    84d4:	ea000001 	b	84e0 <printk+0x198>
    84d8:	e3e00000 	mvn	r0, #0
    84dc:	ea000003 	b	84f0 <printk+0x1a8>
    84e0:	e2844002 	add	r4, r4, #2
    84e4:	e5d40000 	ldrb	r0, [r4]
    84e8:	e3500000 	cmp	r0, #0
    84ec:	1affff9f 	bne	8370 <printk+0x28>
    84f0:	e28dd008 	add	sp, sp, #8
    84f4:	e8bd41f0 	pop	{r4, r5, r6, r7, r8, lr}
    84f8:	e28dd010 	add	sp, sp, #16
    84fc:	e12fff1e 	bx	lr

00008500 <uart_init>:
    8500:	e12fff1e 	bx	lr

00008504 <uart_close>:
    8504:	e12fff1e 	bx	lr

00008508 <uart_put_byte>:
    8508:	e12fff1e 	bx	lr

0000850c <uart_get_byte>:
    850c:	e3a00000 	mov	r0, #0
    8510:	e12fff1e 	bx	lr

00008514 <i2c_master_init>:
    8514:	e12fff1e 	bx	lr

00008518 <i2c_master_write>:
    8518:	e3a00000 	mov	r0, #0
    851c:	e12fff1e 	bx	lr

00008520 <i2c_master_read>:
    8520:	e3a00000 	mov	r0, #0
    8524:	e12fff1e 	bx	lr

00008528 <adc_init>:
    8528:	e12fff1e 	bx	lr

0000852c <adc_read>:
    852c:	e3a00000 	mov	r0, #0
    8530:	e12fff1e 	bx	lr

00008534 <wait>:
    8534:	e2403001 	sub	r3, r0, #1
    8538:	e3500000 	cmp	r0, #0
    853c:	012fff1e 	bxeq	lr
    8540:	e1a00000 	nop			; (mov r0, r0)
    8544:	e2433001 	sub	r3, r3, #1
    8548:	e3730001 	cmn	r3, #1
    854c:	1afffffb 	bne	8540 <wait+0xc>
    8550:	e12fff1e 	bx	lr

00008554 <spi_master_init>:
    8554:	e92d4010 	push	{r4, lr}
    8558:	e1a04001 	mov	r4, r1
    855c:	e3a00007 	mov	r0, #7
    8560:	e3a01004 	mov	r1, #4
    8564:	ebfffeba 	bl	8054 <gpio_config>
    8568:	e3a00008 	mov	r0, #8
    856c:	e3a01004 	mov	r1, #4
    8570:	ebfffeb7 	bl	8054 <gpio_config>
    8574:	e3a0000a 	mov	r0, #10
    8578:	e3a01004 	mov	r1, #4
    857c:	ebfffeb4 	bl	8054 <gpio_config>
    8580:	e3a0000b 	mov	r0, #11
    8584:	e3a01004 	mov	r1, #4
    8588:	ebfffeb1 	bl	8054 <gpio_config>
    858c:	e3a03901 	mov	r3, #16384	; 0x4000
    8590:	e3433f20 	movt	r3, #16160	; 0x3f20
    8594:	e3a02000 	mov	r2, #0
    8598:	e5832000 	str	r2, [r3]
    859c:	e5932000 	ldr	r2, [r3]
    85a0:	e3822030 	orr	r2, r2, #48	; 0x30
    85a4:	e5832000 	str	r2, [r3]
    85a8:	e5932000 	ldr	r2, [r3]
    85ac:	e3c2200f 	bic	r2, r2, #15
    85b0:	e3822040 	orr	r2, r2, #64	; 0x40
    85b4:	e5832000 	str	r2, [r3]
    85b8:	e5834008 	str	r4, [r3, #8]
    85bc:	e3020710 	movw	r0, #10000	; 0x2710
    85c0:	ebffffdb 	bl	8534 <wait>
    85c4:	e8bd8010 	pop	{r4, pc}

000085c8 <spi_begin>:
    85c8:	e3a03901 	mov	r3, #16384	; 0x4000
    85cc:	e3433f20 	movt	r3, #16160	; 0x3f20
    85d0:	e3a02000 	mov	r2, #0
    85d4:	e5832000 	str	r2, [r3]
    85d8:	e5932000 	ldr	r2, [r3]
    85dc:	e3822030 	orr	r2, r2, #48	; 0x30
    85e0:	e5832000 	str	r2, [r3]
    85e4:	e5932000 	ldr	r2, [r3]
    85e8:	e3c2200f 	bic	r2, r2, #15
    85ec:	e3822040 	orr	r2, r2, #64	; 0x40
    85f0:	e5832000 	str	r2, [r3]
    85f4:	e5831008 	str	r1, [r3, #8]
    85f8:	e12fff1e 	bx	lr

000085fc <spi_end>:
    85fc:	e3a03901 	mov	r3, #16384	; 0x4000
    8600:	e3433f20 	movt	r3, #16160	; 0x3f20
    8604:	e5932000 	ldr	r2, [r3]
    8608:	e3c22080 	bic	r2, r2, #128	; 0x80
    860c:	e5832000 	str	r2, [r3]
    8610:	e12fff1e 	bx	lr

00008614 <spi_transfer>:
    8614:	e92d4070 	push	{r4, r5, r6, lr}
    8618:	e1a06000 	mov	r6, r0
    861c:	e3a03901 	mov	r3, #16384	; 0x4000
    8620:	e3433f20 	movt	r3, #16160	; 0x3f20
    8624:	e5932000 	ldr	r2, [r3]
    8628:	e38220b0 	orr	r2, r2, #176	; 0xb0
    862c:	e5832000 	str	r2, [r3]
    8630:	e5933000 	ldr	r3, [r3]
    8634:	e3130701 	tst	r3, #262144	; 0x40000
    8638:	1a000007 	bne	865c <spi_transfer+0x48>
    863c:	e3a05001 	mov	r5, #1
    8640:	e3a04901 	mov	r4, #16384	; 0x4000
    8644:	e3434f20 	movt	r4, #16160	; 0x3f20
    8648:	e1a00005 	mov	r0, r5
    864c:	ebffffb8 	bl	8534 <wait>
    8650:	e5943000 	ldr	r3, [r4]
    8654:	e3130701 	tst	r3, #262144	; 0x40000
    8658:	0afffffa 	beq	8648 <spi_transfer+0x34>
    865c:	e3a03901 	mov	r3, #16384	; 0x4000
    8660:	e3433f20 	movt	r3, #16160	; 0x3f20
    8664:	e5836004 	str	r6, [r3, #4]
    8668:	e5933000 	ldr	r3, [r3]
    866c:	e3130801 	tst	r3, #65536	; 0x10000
    8670:	1a000007 	bne	8694 <spi_transfer+0x80>
    8674:	e3a05001 	mov	r5, #1
    8678:	e3a04901 	mov	r4, #16384	; 0x4000
    867c:	e3434f20 	movt	r4, #16160	; 0x3f20
    8680:	e1a00005 	mov	r0, r5
    8684:	ebffffaa 	bl	8534 <wait>
    8688:	e5943000 	ldr	r3, [r4]
    868c:	e3130801 	tst	r3, #65536	; 0x10000
    8690:	0afffffa 	beq	8680 <spi_transfer+0x6c>
    8694:	e3a03901 	mov	r3, #16384	; 0x4000
    8698:	e3433f20 	movt	r3, #16160	; 0x3f20
    869c:	e5930004 	ldr	r0, [r3, #4]
    86a0:	e5932000 	ldr	r2, [r3]
    86a4:	e3c22080 	bic	r2, r2, #128	; 0x80
    86a8:	e5832000 	str	r2, [r3]
    86ac:	e6ef0070 	uxtb	r0, r0
    86b0:	e8bd8070 	pop	{r4, r5, r6, pc}

000086b4 <delay>:
    86b4:	e2403001 	sub	r3, r0, #1
    86b8:	e3500000 	cmp	r0, #0
    86bc:	012fff1e 	bxeq	lr
    86c0:	e1a00000 	nop			; (mov r0, r0)
    86c4:	e2433001 	sub	r3, r3, #1
    86c8:	e3730001 	cmn	r3, #1
    86cc:	1afffffb 	bne	86c0 <delay+0xc>
    86d0:	e12fff1e 	bx	lr

000086d4 <oled_buf_pixel_set>:
    86d4:	e350001f 	cmp	r0, #31
    86d8:	9351007f 	cmpls	r1, #127	; 0x7f
    86dc:	8a00000b 	bhi	8710 <oled_buf_pixel_set+0x3c>
    86e0:	e260001f 	rsb	r0, r0, #31
    86e4:	e261107f 	rsb	r1, r1, #127	; 0x7f
    86e8:	e1a031a0 	lsr	r3, r0, #3
    86ec:	e0811383 	add	r1, r1, r3, lsl #7
    86f0:	e30b2004 	movw	r2, #45060	; 0xb004
    86f4:	e3402000 	movt	r2, #0
    86f8:	e2003007 	and	r3, r0, #7
    86fc:	e3a00001 	mov	r0, #1
    8700:	e7d2c001 	ldrb	ip, [r2, r1]
    8704:	e18c3310 	orr	r3, ip, r0, lsl r3
    8708:	e7c23001 	strb	r3, [r2, r1]
    870c:	e12fff1e 	bx	lr
    8710:	e3a00000 	mov	r0, #0
    8714:	e12fff1e 	bx	lr

00008718 <oled_buf_pixel_clr>:
    8718:	e350001f 	cmp	r0, #31
    871c:	9351007f 	cmpls	r1, #127	; 0x7f
    8720:	8a00000b 	bhi	8754 <oled_buf_pixel_clr+0x3c>
    8724:	e260001f 	rsb	r0, r0, #31
    8728:	e261107f 	rsb	r1, r1, #127	; 0x7f
    872c:	e1a031a0 	lsr	r3, r0, #3
    8730:	e0811383 	add	r1, r1, r3, lsl #7
    8734:	e30b2004 	movw	r2, #45060	; 0xb004
    8738:	e3402000 	movt	r2, #0
    873c:	e2003007 	and	r3, r0, #7
    8740:	e3a00001 	mov	r0, #1
    8744:	e7d2c001 	ldrb	ip, [r2, r1]
    8748:	e1cc3310 	bic	r3, ip, r0, lsl r3
    874c:	e7c23001 	strb	r3, [r2, r1]
    8750:	e12fff1e 	bx	lr
    8754:	e3a00000 	mov	r0, #0
    8758:	e12fff1e 	bx	lr

0000875c <oled_buf_clr>:
    875c:	e59f3018 	ldr	r3, [pc, #24]	; 877c <oled_buf_clr+0x20>
    8760:	e2831080 	add	r1, r3, #128	; 0x80
    8764:	e3a02000 	mov	r2, #0
    8768:	e5e32001 	strb	r2, [r3, #1]!
    876c:	e1530001 	cmp	r3, r1
    8770:	1afffffc 	bne	8768 <oled_buf_clr+0xc>
    8774:	e3a00001 	mov	r0, #1
    8778:	e12fff1e 	bx	lr
    877c:	0000b003 	andeq	fp, r0, r3

00008780 <oled_write_command>:
    8780:	e92d4010 	push	{r4, lr}
    8784:	e1a04000 	mov	r4, r0
    8788:	e3a00009 	mov	r0, #9
    878c:	ebfffe56 	bl	80ec <gpio_clr>
    8790:	e3a00ffa 	mov	r0, #1000	; 0x3e8
    8794:	ebffffc6 	bl	86b4 <delay>
    8798:	e3a00000 	mov	r0, #0
    879c:	e3a01040 	mov	r1, #64	; 0x40
    87a0:	ebffff88 	bl	85c8 <spi_begin>
    87a4:	e1a00004 	mov	r0, r4
    87a8:	ebffff99 	bl	8614 <spi_transfer>
    87ac:	ebffff92 	bl	85fc <spi_end>
    87b0:	e8bd8010 	pop	{r4, pc}

000087b4 <oled_write_data>:
    87b4:	e92d4010 	push	{r4, lr}
    87b8:	e1a04000 	mov	r4, r0
    87bc:	e3a00009 	mov	r0, #9
    87c0:	ebfffe38 	bl	80a8 <gpio_set>
    87c4:	e3a00ffa 	mov	r0, #1000	; 0x3e8
    87c8:	ebffffb9 	bl	86b4 <delay>
    87cc:	e3a00000 	mov	r0, #0
    87d0:	e3a01020 	mov	r1, #32
    87d4:	ebffff7b 	bl	85c8 <spi_begin>
    87d8:	e1a00004 	mov	r0, r4
    87dc:	ebffff8c 	bl	8614 <spi_transfer>
    87e0:	ebffff85 	bl	85fc <spi_end>
    87e4:	e8bd8010 	pop	{r4, pc}

000087e8 <oled_reset>:
    87e8:	e92d4008 	push	{r3, lr}
    87ec:	e3a00010 	mov	r0, #16
    87f0:	e3a01001 	mov	r1, #1
    87f4:	ebfffe16 	bl	8054 <gpio_config>
    87f8:	e3a00010 	mov	r0, #16
    87fc:	ebfffe29 	bl	80a8 <gpio_set>
    8800:	e30806a0 	movw	r0, #34464	; 0x86a0
    8804:	e3400001 	movt	r0, #1
    8808:	ebffffa9 	bl	86b4 <delay>
    880c:	e3a00010 	mov	r0, #16
    8810:	ebfffe35 	bl	80ec <gpio_clr>
    8814:	e30c0350 	movw	r0, #50000	; 0xc350
    8818:	ebffffa5 	bl	86b4 <delay>
    881c:	e3a00010 	mov	r0, #16
    8820:	ebfffe20 	bl	80a8 <gpio_set>
    8824:	e8bd8008 	pop	{r3, pc}

00008828 <oled_init>:
    8828:	e92d4008 	push	{r3, lr}
    882c:	ebffffed 	bl	87e8 <oled_reset>
    8830:	e3a00010 	mov	r0, #16
    8834:	e3a01001 	mov	r1, #1
    8838:	ebfffe05 	bl	8054 <gpio_config>
    883c:	e3a00009 	mov	r0, #9
    8840:	e3a01001 	mov	r1, #1
    8844:	ebfffe02 	bl	8054 <gpio_config>
    8848:	e3a00010 	mov	r0, #16
    884c:	ebfffe15 	bl	80a8 <gpio_set>
    8850:	e3a00009 	mov	r0, #9
    8854:	ebfffe24 	bl	80ec <gpio_clr>
    8858:	e3020710 	movw	r0, #10000	; 0x2710
    885c:	ebffff94 	bl	86b4 <delay>
    8860:	e3a00000 	mov	r0, #0
    8864:	e3a01020 	mov	r1, #32
    8868:	ebffff39 	bl	8554 <spi_master_init>
    886c:	e3a000ae 	mov	r0, #174	; 0xae
    8870:	ebffffc2 	bl	8780 <oled_write_command>
    8874:	e3a000d5 	mov	r0, #213	; 0xd5
    8878:	ebffffc0 	bl	8780 <oled_write_command>
    887c:	e3a00080 	mov	r0, #128	; 0x80
    8880:	ebffffbe 	bl	8780 <oled_write_command>
    8884:	e3a000a8 	mov	r0, #168	; 0xa8
    8888:	ebffffbc 	bl	8780 <oled_write_command>
    888c:	e3a0001f 	mov	r0, #31
    8890:	ebffffba 	bl	8780 <oled_write_command>
    8894:	e3a000d3 	mov	r0, #211	; 0xd3
    8898:	ebffffb8 	bl	8780 <oled_write_command>
    889c:	e3a00000 	mov	r0, #0
    88a0:	ebffffb6 	bl	8780 <oled_write_command>
    88a4:	e3a00040 	mov	r0, #64	; 0x40
    88a8:	ebffffb4 	bl	8780 <oled_write_command>
    88ac:	e3a0008d 	mov	r0, #141	; 0x8d
    88b0:	ebffffb2 	bl	8780 <oled_write_command>
    88b4:	e3a00014 	mov	r0, #20
    88b8:	ebffffb0 	bl	8780 <oled_write_command>
    88bc:	e3a00020 	mov	r0, #32
    88c0:	ebffffae 	bl	8780 <oled_write_command>
    88c4:	e3a00000 	mov	r0, #0
    88c8:	ebffffac 	bl	8780 <oled_write_command>
    88cc:	e3a000a1 	mov	r0, #161	; 0xa1
    88d0:	ebffffaa 	bl	8780 <oled_write_command>
    88d4:	e3a000c8 	mov	r0, #200	; 0xc8
    88d8:	ebffffa8 	bl	8780 <oled_write_command>
    88dc:	e3a000da 	mov	r0, #218	; 0xda
    88e0:	ebffffa6 	bl	8780 <oled_write_command>
    88e4:	e3a00002 	mov	r0, #2
    88e8:	ebffffa4 	bl	8780 <oled_write_command>
    88ec:	e3a00081 	mov	r0, #129	; 0x81
    88f0:	ebffffa2 	bl	8780 <oled_write_command>
    88f4:	e3a0008f 	mov	r0, #143	; 0x8f
    88f8:	ebffffa0 	bl	8780 <oled_write_command>
    88fc:	e3a000d9 	mov	r0, #217	; 0xd9
    8900:	ebffff9e 	bl	8780 <oled_write_command>
    8904:	e3a000f1 	mov	r0, #241	; 0xf1
    8908:	ebffff9c 	bl	8780 <oled_write_command>
    890c:	e3a000db 	mov	r0, #219	; 0xdb
    8910:	ebffff9a 	bl	8780 <oled_write_command>
    8914:	e3a00040 	mov	r0, #64	; 0x40
    8918:	ebffff98 	bl	8780 <oled_write_command>
    891c:	e3a000a4 	mov	r0, #164	; 0xa4
    8920:	ebffff96 	bl	8780 <oled_write_command>
    8924:	e3a000a6 	mov	r0, #166	; 0xa6
    8928:	ebffff94 	bl	8780 <oled_write_command>
    892c:	e3a000af 	mov	r0, #175	; 0xaf
    8930:	ebffff92 	bl	8780 <oled_write_command>
    8934:	e8bd8008 	pop	{r3, pc}

00008938 <oled_start_sequence>:
    8938:	e92d4008 	push	{r3, lr}
    893c:	e3a00021 	mov	r0, #33	; 0x21
    8940:	ebffff8e 	bl	8780 <oled_write_command>
    8944:	e3a00000 	mov	r0, #0
    8948:	ebffff8c 	bl	8780 <oled_write_command>
    894c:	e3a0007f 	mov	r0, #127	; 0x7f
    8950:	ebffff8a 	bl	8780 <oled_write_command>
    8954:	e3a00022 	mov	r0, #34	; 0x22
    8958:	ebffff88 	bl	8780 <oled_write_command>
    895c:	e3a00000 	mov	r0, #0
    8960:	ebffff86 	bl	8780 <oled_write_command>
    8964:	e3a00003 	mov	r0, #3
    8968:	ebffff84 	bl	8780 <oled_write_command>
    896c:	e8bd8008 	pop	{r3, pc}

00008970 <oled_buf_draw>:
    8970:	e92d4038 	push	{r3, r4, r5, lr}
    8974:	ebffffef 	bl	8938 <oled_start_sequence>
    8978:	e3a00009 	mov	r0, #9
    897c:	ebfffdc9 	bl	80a8 <gpio_set>
    8980:	e3a00000 	mov	r0, #0
    8984:	e3a01020 	mov	r1, #32
    8988:	ebffff0e 	bl	85c8 <spi_begin>
    898c:	e59f401c 	ldr	r4, [pc, #28]	; 89b0 <oled_buf_draw+0x40>
    8990:	e2845c02 	add	r5, r4, #512	; 0x200
    8994:	e5f40001 	ldrb	r0, [r4, #1]!
    8998:	ebffff1d 	bl	8614 <spi_transfer>
    899c:	e1540005 	cmp	r4, r5
    89a0:	1afffffb 	bne	8994 <oled_buf_draw+0x24>
    89a4:	ebffff14 	bl	85fc <spi_end>
    89a8:	e3a00001 	mov	r0, #1
    89ac:	e8bd8038 	pop	{r3, r4, r5, pc}
    89b0:	0000b003 	andeq	fp, r0, r3

000089b4 <oled_scroll_test>:
    89b4:	e92d4038 	push	{r3, r4, r5, lr}
    89b8:	ebffffde 	bl	8938 <oled_start_sequence>
    89bc:	e3a00009 	mov	r0, #9
    89c0:	ebfffdb8 	bl	80a8 <gpio_set>
    89c4:	e3a00000 	mov	r0, #0
    89c8:	e3a01020 	mov	r1, #32
    89cc:	ebfffefd 	bl	85c8 <spi_begin>
    89d0:	e3a04c02 	mov	r4, #512	; 0x200
    89d4:	e30b5000 	movw	r5, #45056	; 0xb000
    89d8:	e3405000 	movt	r5, #0
    89dc:	e5950000 	ldr	r0, [r5]
    89e0:	e2803001 	add	r3, r0, #1
    89e4:	e5853000 	str	r3, [r5]
    89e8:	e6ef0070 	uxtb	r0, r0
    89ec:	ebffff08 	bl	8614 <spi_transfer>
    89f0:	e2544001 	subs	r4, r4, #1
    89f4:	1afffff8 	bne	89dc <oled_scroll_test+0x28>
    89f8:	ebfffeff 	bl	85fc <spi_end>
    89fc:	e30b3000 	movw	r3, #45056	; 0xb000
    8a00:	e3403000 	movt	r3, #0
    8a04:	e5932000 	ldr	r2, [r3]
    8a08:	e2822001 	add	r2, r2, #1
    8a0c:	e5832000 	str	r2, [r3]
    8a10:	e8bd8038 	pop	{r3, r4, r5, pc}

00008a14 <oled_clear_screen>:
    8a14:	e92d4038 	push	{r3, r4, r5, lr}
    8a18:	ebffffc6 	bl	8938 <oled_start_sequence>
    8a1c:	e3a00009 	mov	r0, #9
    8a20:	ebfffda0 	bl	80a8 <gpio_set>
    8a24:	e3a00000 	mov	r0, #0
    8a28:	e3a01020 	mov	r1, #32
    8a2c:	ebfffee5 	bl	85c8 <spi_begin>
    8a30:	e3a04c02 	mov	r4, #512	; 0x200
    8a34:	e3a05000 	mov	r5, #0
    8a38:	e1a00005 	mov	r0, r5
    8a3c:	ebfffef4 	bl	8614 <spi_transfer>
    8a40:	e2544001 	subs	r4, r4, #1
    8a44:	1afffffb 	bne	8a38 <oled_clear_screen+0x24>
    8a48:	ebfffeeb 	bl	85fc <spi_end>
    8a4c:	e8bd8038 	pop	{r3, r4, r5, pc}

00008a50 <delay_cycles>:
    8a50:	e2500001 	subs	r0, r0, #1
    8a54:	1afffffd 	bne	8a50 <delay_cycles>
    8a58:	e1a0f00e 	mov	pc, lr

00008a5c <read_cpsr>:
    8a5c:	e10f0000 	mrs	r0, CPSR
    8a60:	e1a0f00e 	mov	pc, lr

00008a64 <write_cpsr>:
    8a64:	e129f000 	msr	CPSR_fc, r0
    8a68:	e1a0f00e 	mov	pc, lr

00008a6c <disable_interrupts>:
    8a6c:	e10f0000 	mrs	r0, CPSR
    8a70:	e3a01d07 	mov	r1, #448	; 0x1c0
    8a74:	e1800001 	orr	r0, r0, r1
    8a78:	e129f000 	msr	CPSR_fc, r0
    8a7c:	e1a0f00e 	mov	pc, lr

00008a80 <enable_interrupts>:
    8a80:	e10f0000 	mrs	r0, CPSR
    8a84:	e3a01d07 	mov	r1, #448	; 0x1c0
    8a88:	e1c00001 	bic	r0, r0, r1
    8a8c:	e129f000 	msr	CPSR_fc, r0
    8a90:	e1a0f00e 	mov	pc, lr

00008a94 <__aeabi_uldivmod>:
    8a94:	e3530000 	cmp	r3, #0
    8a98:	03520000 	cmpeq	r2, #0
    8a9c:	1a000004 	bne	8ab4 <__aeabi_uldivmod+0x20>
    8aa0:	e3510000 	cmp	r1, #0
    8aa4:	03500000 	cmpeq	r0, #0
    8aa8:	13e01000 	mvnne	r1, #0
    8aac:	13e00000 	mvnne	r0, #0
    8ab0:	ea000027 	b	8b54 <__aeabi_idiv0>
    8ab4:	e24dd008 	sub	sp, sp, #8
    8ab8:	e92d6000 	push	{sp, lr}
    8abc:	eb000014 	bl	8b14 <__gnu_uldivmod_helper>
    8ac0:	e59de004 	ldr	lr, [sp, #4]
    8ac4:	e28dd008 	add	sp, sp, #8
    8ac8:	e8bd000c 	pop	{r2, r3}
    8acc:	e12fff1e 	bx	lr

00008ad0 <__gnu_ldivmod_helper>:
    8ad0:	e92d47f0 	push	{r4, r5, r6, r7, r8, r9, sl, lr}
    8ad4:	e59d6020 	ldr	r6, [sp, #32]
    8ad8:	e1a07002 	mov	r7, r2
    8adc:	e1a0a003 	mov	sl, r3
    8ae0:	e1a04000 	mov	r4, r0
    8ae4:	e1a05001 	mov	r5, r1
    8ae8:	eb00001a 	bl	8b58 <__divdi3>
    8aec:	e1a03000 	mov	r3, r0
    8af0:	e0020197 	mul	r2, r7, r1
    8af4:	e0898097 	umull	r8, r9, r7, r0
    8af8:	e023239a 	mla	r3, sl, r3, r2
    8afc:	e0544008 	subs	r4, r4, r8
    8b00:	e0839009 	add	r9, r3, r9
    8b04:	e0c55009 	sbc	r5, r5, r9
    8b08:	e8860030 	stm	r6, {r4, r5}
    8b0c:	e8bd47f0 	pop	{r4, r5, r6, r7, r8, r9, sl, lr}
    8b10:	e12fff1e 	bx	lr

00008b14 <__gnu_uldivmod_helper>:
    8b14:	e92d41f0 	push	{r4, r5, r6, r7, r8, lr}
    8b18:	e59d5018 	ldr	r5, [sp, #24]
    8b1c:	e1a04002 	mov	r4, r2
    8b20:	e1a08003 	mov	r8, r3
    8b24:	e1a06000 	mov	r6, r0
    8b28:	e1a07001 	mov	r7, r1
    8b2c:	eb000067 	bl	8cd0 <__udivdi3>
    8b30:	e0080890 	mul	r8, r0, r8
    8b34:	e0832490 	umull	r2, r3, r0, r4
    8b38:	e0248491 	mla	r4, r1, r4, r8
    8b3c:	e0566002 	subs	r6, r6, r2
    8b40:	e0843003 	add	r3, r4, r3
    8b44:	e0c77003 	sbc	r7, r7, r3
    8b48:	e88500c0 	stm	r5, {r6, r7}
    8b4c:	e8bd41f0 	pop	{r4, r5, r6, r7, r8, lr}
    8b50:	e12fff1e 	bx	lr

00008b54 <__aeabi_idiv0>:
    8b54:	e12fff1e 	bx	lr

00008b58 <__divdi3>:
    8b58:	e3510000 	cmp	r1, #0
    8b5c:	e92d4ff8 	push	{r3, r4, r5, r6, r7, r8, r9, sl, fp, lr}
    8b60:	a1a04000 	movge	r4, r0
    8b64:	a1a05001 	movge	r5, r1
    8b68:	a3a0a000 	movge	sl, #0
    8b6c:	ba000053 	blt	8cc0 <__divdi3+0x168>
    8b70:	e3530000 	cmp	r3, #0
    8b74:	a1a08002 	movge	r8, r2
    8b78:	a1a09003 	movge	r9, r3
    8b7c:	ba00004b 	blt	8cb0 <__divdi3+0x158>
    8b80:	e1550009 	cmp	r5, r9
    8b84:	01540008 	cmpeq	r4, r8
    8b88:	33a02000 	movcc	r2, #0
    8b8c:	33a03000 	movcc	r3, #0
    8b90:	3a00003b 	bcc	8c84 <__divdi3+0x12c>
    8b94:	e1a01009 	mov	r1, r9
    8b98:	e1a00008 	mov	r0, r8
    8b9c:	eb000093 	bl	8df0 <__clzdi2>
    8ba0:	e1a01005 	mov	r1, r5
    8ba4:	e1a0b000 	mov	fp, r0
    8ba8:	e1a00004 	mov	r0, r4
    8bac:	eb00008f 	bl	8df0 <__clzdi2>
    8bb0:	e060000b 	rsb	r0, r0, fp
    8bb4:	e240e020 	sub	lr, r0, #32
    8bb8:	e1a07019 	lsl	r7, r9, r0
    8bbc:	e1877e18 	orr	r7, r7, r8, lsl lr
    8bc0:	e260c020 	rsb	ip, r0, #32
    8bc4:	e1877c38 	orr	r7, r7, r8, lsr ip
    8bc8:	e1550007 	cmp	r5, r7
    8bcc:	e1a06018 	lsl	r6, r8, r0
    8bd0:	01540006 	cmpeq	r4, r6
    8bd4:	e1a01000 	mov	r1, r0
    8bd8:	33a02000 	movcc	r2, #0
    8bdc:	33a03000 	movcc	r3, #0
    8be0:	3a000005 	bcc	8bfc <__divdi3+0xa4>
    8be4:	e3a08001 	mov	r8, #1
    8be8:	e0544006 	subs	r4, r4, r6
    8bec:	e1a03e18 	lsl	r3, r8, lr
    8bf0:	e1833c38 	orr	r3, r3, r8, lsr ip
    8bf4:	e0c55007 	sbc	r5, r5, r7
    8bf8:	e1a02018 	lsl	r2, r8, r0
    8bfc:	e3500000 	cmp	r0, #0
    8c00:	0a00001f 	beq	8c84 <__divdi3+0x12c>
    8c04:	e1b070a7 	lsrs	r7, r7, #1
    8c08:	e1a06066 	rrx	r6, r6
    8c0c:	ea000007 	b	8c30 <__divdi3+0xd8>
    8c10:	e0544006 	subs	r4, r4, r6
    8c14:	e0c55007 	sbc	r5, r5, r7
    8c18:	e0944004 	adds	r4, r4, r4
    8c1c:	e0a55005 	adc	r5, r5, r5
    8c20:	e2944001 	adds	r4, r4, #1
    8c24:	e2a55000 	adc	r5, r5, #0
    8c28:	e2500001 	subs	r0, r0, #1
    8c2c:	0a000006 	beq	8c4c <__divdi3+0xf4>
    8c30:	e1570005 	cmp	r7, r5
    8c34:	01560004 	cmpeq	r6, r4
    8c38:	9afffff4 	bls	8c10 <__divdi3+0xb8>
    8c3c:	e0944004 	adds	r4, r4, r4
    8c40:	e0a55005 	adc	r5, r5, r5
    8c44:	e2500001 	subs	r0, r0, #1
    8c48:	1afffff8 	bne	8c30 <__divdi3+0xd8>
    8c4c:	e261c020 	rsb	ip, r1, #32
    8c50:	e1a00134 	lsr	r0, r4, r1
    8c54:	e0922004 	adds	r2, r2, r4
    8c58:	e241e020 	sub	lr, r1, #32
    8c5c:	e1800c15 	orr	r0, r0, r5, lsl ip
    8c60:	e1a04135 	lsr	r4, r5, r1
    8c64:	e1800e35 	orr	r0, r0, r5, lsr lr
    8c68:	e1a07114 	lsl	r7, r4, r1
    8c6c:	e1877e10 	orr	r7, r7, r0, lsl lr
    8c70:	e1a06110 	lsl	r6, r0, r1
    8c74:	e0a33005 	adc	r3, r3, r5
    8c78:	e1877c30 	orr	r7, r7, r0, lsr ip
    8c7c:	e0522006 	subs	r2, r2, r6
    8c80:	e0c33007 	sbc	r3, r3, r7
    8c84:	e29a0000 	adds	r0, sl, #0
    8c88:	13a00001 	movne	r0, #1
    8c8c:	e3a01000 	mov	r1, #0
    8c90:	e2704000 	rsbs	r4, r0, #0
    8c94:	e2e15000 	rsc	r5, r1, #0
    8c98:	e0222004 	eor	r2, r2, r4
    8c9c:	e0233005 	eor	r3, r3, r5
    8ca0:	e0900002 	adds	r0, r0, r2
    8ca4:	e0a11003 	adc	r1, r1, r3
    8ca8:	e8bd4ff8 	pop	{r3, r4, r5, r6, r7, r8, r9, sl, fp, lr}
    8cac:	e12fff1e 	bx	lr
    8cb0:	e2728000 	rsbs	r8, r2, #0
    8cb4:	e1e0a00a 	mvn	sl, sl
    8cb8:	e2e39000 	rsc	r9, r3, #0
    8cbc:	eaffffaf 	b	8b80 <__divdi3+0x28>
    8cc0:	e2704000 	rsbs	r4, r0, #0
    8cc4:	e2e15000 	rsc	r5, r1, #0
    8cc8:	e3e0a000 	mvn	sl, #0
    8ccc:	eaffffa7 	b	8b70 <__divdi3+0x18>

00008cd0 <__udivdi3>:
    8cd0:	e1510003 	cmp	r1, r3
    8cd4:	01500002 	cmpeq	r0, r2
    8cd8:	e92d47f0 	push	{r4, r5, r6, r7, r8, r9, sl, lr}
    8cdc:	e1a04000 	mov	r4, r0
    8ce0:	e1a05001 	mov	r5, r1
    8ce4:	e1a08002 	mov	r8, r2
    8ce8:	e1a09003 	mov	r9, r3
    8cec:	33a00000 	movcc	r0, #0
    8cf0:	33a01000 	movcc	r1, #0
    8cf4:	3a00003b 	bcc	8de8 <__udivdi3+0x118>
    8cf8:	e1a01003 	mov	r1, r3
    8cfc:	e1a00002 	mov	r0, r2
    8d00:	eb00003a 	bl	8df0 <__clzdi2>
    8d04:	e1a01005 	mov	r1, r5
    8d08:	e1a0a000 	mov	sl, r0
    8d0c:	e1a00004 	mov	r0, r4
    8d10:	eb000036 	bl	8df0 <__clzdi2>
    8d14:	e060300a 	rsb	r3, r0, sl
    8d18:	e243e020 	sub	lr, r3, #32
    8d1c:	e1a07319 	lsl	r7, r9, r3
    8d20:	e1877e18 	orr	r7, r7, r8, lsl lr
    8d24:	e263c020 	rsb	ip, r3, #32
    8d28:	e1877c38 	orr	r7, r7, r8, lsr ip
    8d2c:	e1550007 	cmp	r5, r7
    8d30:	e1a06318 	lsl	r6, r8, r3
    8d34:	01540006 	cmpeq	r4, r6
    8d38:	e1a02003 	mov	r2, r3
    8d3c:	33a00000 	movcc	r0, #0
    8d40:	33a01000 	movcc	r1, #0
    8d44:	3a000005 	bcc	8d60 <__udivdi3+0x90>
    8d48:	e3a08001 	mov	r8, #1
    8d4c:	e0544006 	subs	r4, r4, r6
    8d50:	e1a01e18 	lsl	r1, r8, lr
    8d54:	e1811c38 	orr	r1, r1, r8, lsr ip
    8d58:	e0c55007 	sbc	r5, r5, r7
    8d5c:	e1a00318 	lsl	r0, r8, r3
    8d60:	e3530000 	cmp	r3, #0
    8d64:	0a00001f 	beq	8de8 <__udivdi3+0x118>
    8d68:	e1b070a7 	lsrs	r7, r7, #1
    8d6c:	e1a06066 	rrx	r6, r6
    8d70:	ea000007 	b	8d94 <__udivdi3+0xc4>
    8d74:	e0544006 	subs	r4, r4, r6
    8d78:	e0c55007 	sbc	r5, r5, r7
    8d7c:	e0944004 	adds	r4, r4, r4
    8d80:	e0a55005 	adc	r5, r5, r5
    8d84:	e2944001 	adds	r4, r4, #1
    8d88:	e2a55000 	adc	r5, r5, #0
    8d8c:	e2533001 	subs	r3, r3, #1
    8d90:	0a000006 	beq	8db0 <__udivdi3+0xe0>
    8d94:	e1570005 	cmp	r7, r5
    8d98:	01560004 	cmpeq	r6, r4
    8d9c:	9afffff4 	bls	8d74 <__udivdi3+0xa4>
    8da0:	e0944004 	adds	r4, r4, r4
    8da4:	e0a55005 	adc	r5, r5, r5
    8da8:	e2533001 	subs	r3, r3, #1
    8dac:	1afffff8 	bne	8d94 <__udivdi3+0xc4>
    8db0:	e0948000 	adds	r8, r4, r0
    8db4:	e0a59001 	adc	r9, r5, r1
    8db8:	e1a03234 	lsr	r3, r4, r2
    8dbc:	e2621020 	rsb	r1, r2, #32
    8dc0:	e2420020 	sub	r0, r2, #32
    8dc4:	e1833115 	orr	r3, r3, r5, lsl r1
    8dc8:	e1a0c235 	lsr	ip, r5, r2
    8dcc:	e1833035 	orr	r3, r3, r5, lsr r0
    8dd0:	e1a0721c 	lsl	r7, ip, r2
    8dd4:	e1877013 	orr	r7, r7, r3, lsl r0
    8dd8:	e1a06213 	lsl	r6, r3, r2
    8ddc:	e1877133 	orr	r7, r7, r3, lsr r1
    8de0:	e0580006 	subs	r0, r8, r6
    8de4:	e0c91007 	sbc	r1, r9, r7
    8de8:	e8bd47f0 	pop	{r4, r5, r6, r7, r8, r9, sl, lr}
    8dec:	e12fff1e 	bx	lr

00008df0 <__clzdi2>:
    8df0:	e92d4010 	push	{r4, lr}
    8df4:	e3510000 	cmp	r1, #0
    8df8:	1a000002 	bne	8e08 <__clzdi2+0x18>
    8dfc:	eb000005 	bl	8e18 <__clzsi2>
    8e00:	e2800020 	add	r0, r0, #32
    8e04:	ea000001 	b	8e10 <__clzdi2+0x20>
    8e08:	e1a00001 	mov	r0, r1
    8e0c:	eb000001 	bl	8e18 <__clzsi2>
    8e10:	e8bd4010 	pop	{r4, lr}
    8e14:	e12fff1e 	bx	lr

00008e18 <__clzsi2>:
    8e18:	e3a0101c 	mov	r1, #28
    8e1c:	e3500801 	cmp	r0, #65536	; 0x10000
    8e20:	21a00820 	lsrcs	r0, r0, #16
    8e24:	22411010 	subcs	r1, r1, #16
    8e28:	e3500c01 	cmp	r0, #256	; 0x100
    8e2c:	21a00420 	lsrcs	r0, r0, #8
    8e30:	22411008 	subcs	r1, r1, #8
    8e34:	e3500010 	cmp	r0, #16
    8e38:	21a00220 	lsrcs	r0, r0, #4
    8e3c:	22411004 	subcs	r1, r1, #4
    8e40:	e28f2008 	add	r2, pc, #8
    8e44:	e7d20000 	ldrb	r0, [r2, r0]
    8e48:	e0800001 	add	r0, r0, r1
    8e4c:	e12fff1e 	bx	lr
    8e50:	02020304 	andeq	r0, r2, #4, 6	; 0x10000000
    8e54:	01010101 	tsteq	r1, r1, lsl #2
	...
